; Listing generated by Microsoft (R) Optimizing Compiler Version 19.32.31332.0 

include listing.inc

INCLUDELIB OLDNAMES

PUBLIC	??_C@_0M@EKADLLOH@DNS?5timeout@			; `string'
PUBLIC	??_C@_06BPNCNPOK@dns_cb@			; `string'
PUBLIC	??_C@_0DD@NDGBJGCA@C?3?2Users?2dev?2source?2repos?2alpin@ ; `string'
PUBLIC	??_C@_0BJ@COKDKGDG@Unexpected?5DNS?5response?3@	; `string'
PUBLIC	??_C@_0N@NMEECLIA@?$CFlu?5?$CFs?5is?5?$CFM@	; `string'
PUBLIC	??_C@_0BF@BIFAMDJJ@?$CFs?5DNS?5lookup?5failed@	; `string'
PUBLIC	??_C@_0BF@ICMAECGD@?$CFlu?5already?5resolved@	; `string'
PUBLIC	??_C@_0BA@NIPDPKGJ@stray?5DNS?5reply@		; `string'
PUBLIC	??_C@_09MNPPPHEH@DNS?5error@			; `string'
PUBLIC	??_C@_05OPJKAIHI@?$AA?$AA?$AB?$AA?$AB@		; `string'
PUBLIC	??_C@_0CL@JCHAOBLG@DNS?5server?5URL?5is?5NULL?4?5Call?5mg@ ; `string'
PUBLIC	??_C@_08DKAJKOFH@resolver@			; `string'
PUBLIC	??_C@_0M@JPBODOLJ@resolve?5OOM@			; `string'
PUBLIC	??_C@_0N@IKEIFCGJ@mg_sendnsreq@			; `string'
PUBLIC	??_C@_0CD@BHFHEJIF@?$CFlu?5resolving?5?$CF?4?$CKs?5?$EA?5?$CFs?0?5txnid?5@ ; `string'
PUBLIC	??_C@_08ECFMEKDO@DNS?5send@			; `string'
PUBLIC	??_C@_08PPPGGPGG@mg_error@			; `string'
PUBLIC	??_C@_0L@PPINGECD@?$CFlu?5?$CFld?5?$CFs@	; `string'
PUBLIC	??_C@_02DKCKIIND@?$CFs@				; `string'
PUBLIC	??_C@_03OJHLLCGB@inf@				; `string'
PUBLIC	??_C@_04DHEMHBNF@?9inf@				; `string'
PUBLIC	??_C@_03LHCJEHON@nan@				; `string'
PUBLIC	??_C@_04EBNJJJJI@?$CF?4?$CKs@			; `string'
PUBLIC	??_C@_0BB@JCEFLFJE@0123456789abcdef@		; `string'
PUBLIC	??_C@_02MDDDDAID@0x@				; `string'
PUBLIC	??_C@_06HDKLCKBF@?$CFs?4?4?$CFd@		; `string'
PUBLIC	??_C@_15JJPIMNBO@?$AAr?$AAb@			; `string'
PUBLIC	??_C@_15PKPONJIK@?$AA?2?$AA?$CK@		; `string'
PUBLIC	??_C@_01LFCBOECM@?4@				; `string'
PUBLIC	??_C@_02DJGKEECL@?4?4@				; `string'
PUBLIC	??_C@_03DOPCBAKB@a?$CLb@			; `string'
PUBLIC	??_C@_0BE@LMOOGHBG@Content?9Disposition@	; `string'
PUBLIC	??_C@_04MEMAJGDJ@name@				; `string'
PUBLIC	??_C@_08BABJIOEM@filename@			; `string'
PUBLIC	??_C@_0BG@EPHDEOFO@Authorization?3?5Basic?5@	; `string'
PUBLIC	??_C@_02PCIJFNDE@?$AN?6@			; `string'
PUBLIC	??_C@_0O@KKGICJJI@mg_http_bauth@		; `string'
PUBLIC	??_C@_0BA@LNKDPIGG@?$CFlu?5oom?5?$CFd?9?$DO?$CFd?5@ ; `string'
PUBLIC	??_C@_0P@HOJGPHBA@Content?9Length@		; `string'
PUBLIC	??_C@_05FKGKDBHO@HTTP?1@			; `string'
PUBLIC	??_C@_03KBBGFLEK@PUT@				; `string'
PUBLIC	??_C@_04HCJEIHPL@POST@				; `string'
PUBLIC	??_C@_03BLNIAGKO@204@				; `string'
PUBLIC	??_C@_0L@HNOLOFKI@?5?5?5?5?5?5?5?5?$AN?6@	; `string'
PUBLIC	??_C@_05CLMJGDKL@?$CF08lx@			; `string'
PUBLIC	??_C@_05BJCCKDDP@?$CFlx?$AN?6@			; `string'
PUBLIC	??_C@_08LJHDLOLO@Continue@			; `string'
PUBLIC	??_C@_0BE@FGMIEJDD@Switching?5Protocols@	; `string'
PUBLIC	??_C@_0L@HFFAKEO@Processing@			; `string'
PUBLIC	??_C@_02GIPFHKNO@OK@				; `string'
PUBLIC	??_C@_07BBIDHECN@Created@			; `string'
PUBLIC	??_C@_08DOBOODLA@Accepted@			; `string'
PUBLIC	??_C@_0BO@FFMKBPKJ@Non?9authoritative?5Information@ ; `string'
PUBLIC	??_C@_0L@FDPJCNGK@No?5Content@			; `string'
PUBLIC	??_C@_0O@BFFLKCLE@Reset?5Content@		; `string'
PUBLIC	??_C@_0BA@NNLNHGMN@Partial?5Content@		; `string'
PUBLIC	??_C@_0N@BFLFIKGM@Multi?9Status@		; `string'
PUBLIC	??_C@_0BB@BPJDMGEO@Already?5Reported@		; `string'
PUBLIC	??_C@_07EIILAAHO@IM?5Used@			; `string'
PUBLIC	??_C@_0BB@HLFEHKPE@Multiple?5Choices@		; `string'
PUBLIC	??_C@_0BC@BPBCNFPI@Moved?5Permanently@		; `string'
PUBLIC	??_C@_05JDGHEPJG@Found@				; `string'
PUBLIC	??_C@_09FAMPMKIP@See?5Other@			; `string'
PUBLIC	??_C@_0N@IFEFAIJB@Not?5Modified@		; `string'
PUBLIC	??_C@_09JFBGBFIM@Use?5Proxy@			; `string'
PUBLIC	??_C@_0BD@PJMNAMDM@Temporary?5Redirect@		; `string'
PUBLIC	??_C@_0BD@INBAOFGJ@Permanent?5Redirect@		; `string'
PUBLIC	??_C@_0M@LNAIDEEG@Bad?5Request@			; `string'
PUBLIC	??_C@_0N@OOAPMOJA@Unauthorized@			; `string'
PUBLIC	??_C@_0BB@LMPIHCBH@Payment?5Required@		; `string'
PUBLIC	??_C@_09LMDIMFJD@Forbidden@			; `string'
PUBLIC	??_C@_09CFCBFJND@Not?5Found@			; `string'
PUBLIC	??_C@_0BD@CCIPIALO@Method?5Not?5Allowed@	; `string'
PUBLIC	??_C@_0P@HHIDFAOI@Not?5Acceptable@		; `string'
PUBLIC	??_C@_0BO@ONPAAOGI@Proxy?5Authentication?5Required@ ; `string'
PUBLIC	??_C@_0BA@HALFGGF@Request?5Timeout@		; `string'
PUBLIC	??_C@_08OJCIFGDF@Conflict@			; `string'
PUBLIC	??_C@_04OKIIBCCG@Gone@				; `string'
PUBLIC	??_C@_0BA@JCKHPIPI@Length?5Required@		; `string'
PUBLIC	??_C@_0BE@BBDBJOM@Precondition?5Failed@		; `string'
PUBLIC	??_C@_0BC@OEAEGMJF@Payload?5Too?5Large@		; `string'
PUBLIC	??_C@_0BF@IHICNLJ@Request?9URI?5Too?5Long@	; `string'
PUBLIC	??_C@_0BH@HLJJIAEN@Unsupported?5Media?5Type@	; `string'
PUBLIC	??_C@_0CA@CBAMGINK@Requested?5Range?5Not?5Satisfiable@ ; `string'
PUBLIC	??_C@_0BD@NDMHPAED@Expectation?5Failed@		; `string'
PUBLIC	??_C@_0N@EHOCJLEI@I?8m?5a?5teapot@		; `string'
PUBLIC	??_C@_0BE@GGAHKOMD@Misdirected?5Request@	; `string'
PUBLIC	??_C@_0BF@BHJGKCEF@Unprocessable?5Entity@	; `string'
PUBLIC	??_C@_06GFKCFIPE@Locked@			; `string'
PUBLIC	??_C@_0BC@KKPOPIFM@Failed?5Dependency@		; `string'
PUBLIC	??_C@_0BB@NMNIKHMI@Upgrade?5Required@		; `string'
PUBLIC	??_C@_0BG@GMCBMLGE@Precondition?5Required@	; `string'
PUBLIC	??_C@_0BC@JPBLCMB@Too?5Many?5Requests@		; `string'
PUBLIC	??_C@_0CA@IOEEABLM@Request?5Header?5Fields?5Too?5Large@ ; `string'
PUBLIC	??_C@_0CD@CBAJJADO@Connection?5Closed?5Without?5Respo@ ; `string'
PUBLIC	??_C@_0BO@BDFIKLNJ@Unavailable?5For?5Legal?5Reasons@ ; `string'
PUBLIC	??_C@_0BG@NOEDODFP@Client?5Closed?5Request@	; `string'
PUBLIC	??_C@_0BG@NJGANGCC@Internal?5Server?5Error@	; `string'
PUBLIC	??_C@_0BA@JGKGKAME@Not?5Implemented@		; `string'
PUBLIC	??_C@_0M@BNCNLPGM@Bad?5Gateway@			; `string'
PUBLIC	??_C@_0BE@NGHLFKBN@Service?5Unavailable@	; `string'
PUBLIC	??_C@_0BA@MCOKJNOA@Gateway?5Timeout@		; `string'
PUBLIC	??_C@_0BL@ODCMNOHA@HTTP?5Version?5Not?5Supported@ ; `string'
PUBLIC	??_C@_0BI@PDOLHBJO@Variant?5Also?5Negotiates@	; `string'
PUBLIC	??_C@_0BF@GDOFGFPB@Insufficient?5Storage@	; `string'
PUBLIC	??_C@_0O@KJBLEGOO@Loop?5Detected@		; `string'
PUBLIC	??_C@_0N@JKOFFNBC@Not?5Extended@		; `string'
PUBLIC	??_C@_0CA@JCJMCNEH@Network?5Authentication?5Required@ ; `string'
PUBLIC	??_C@_0BO@OINGLCPC@Network?5Connect?5Timeout?5Error@ ; `string'
PUBLIC	??_C@_00CNPNBAHC@@				; `string'
PUBLIC	??_C@_0DC@GEFECBIH@HTTP?11?41?5?$CFd?5?$CFs?$AN?6?$CFsContent?9Lengt@ ; `string'
PUBLIC	??_C@_06DLMLPGDC@?$CF?910lu@			; `string'
PUBLIC	??_C@_0M@KPHLEGAC@?$CC?$CFlld?4?$CFlld?$CC@	; `string'
PUBLIC	??_C@_04PNIFHPHN@html@				; `string'
PUBLIC	??_C@_0BJ@CDMHJEKP@text?1html?$DL?5charset?$DNutf?98@ ; `string'
PUBLIC	??_C@_03KDICCKGJ@htm@				; `string'
PUBLIC	??_C@_03KFINIEDC@css@				; `string'
PUBLIC	??_C@_0BI@MKFMEPPC@text?1css?$DL?5charset?$DNutf?98@ ; `string'
PUBLIC	??_C@_02EBOMECCO@js@				; `string'
PUBLIC	??_C@_0BP@IBHNJOOI@text?1javascript?$DL?5charset?$DNutf?98@ ; `string'
PUBLIC	??_C@_03MOLNDNH@gif@				; `string'
PUBLIC	??_C@_09HADNJIG@image?1gif@			; `string'
PUBLIC	??_C@_03NNHBJLDF@png@				; `string'
PUBLIC	??_C@_09NGJJJBGE@image?1png@			; `string'
PUBLIC	??_C@_03PEGNKCLE@jpg@				; `string'
PUBLIC	??_C@_0L@PJKHLKFB@image?1jpeg@			; `string'
PUBLIC	??_C@_04OFMADDDJ@jpeg@				; `string'
PUBLIC	??_C@_04GOJHKINL@woff@				; `string'
PUBLIC	??_C@_09DPKAPMKA@font?1woff@			; `string'
PUBLIC	??_C@_03FKLJBLIF@ttf@				; `string'
PUBLIC	??_C@_08LDONFKLE@font?1ttf@			; `string'
PUBLIC	??_C@_03NNPBMGBD@svg@				; `string'
PUBLIC	??_C@_0O@MMMFMLNF@image?1svg?$CLxml@		; `string'
PUBLIC	??_C@_03CLFHJCDC@txt@				; `string'
PUBLIC	??_C@_0BK@LKDCPLNF@text?1plain?$DL?5charset?$DNutf?98@ ; `string'
PUBLIC	??_C@_03LJGCHEIJ@avi@				; `string'
PUBLIC	??_C@_0BA@DDNKOHJP@video?1x?9msvideo@		; `string'
PUBLIC	??_C@_03NIPKHAHH@csv@				; `string'
PUBLIC	??_C@_08CGFGOOIN@text?1csv@			; `string'
PUBLIC	??_C@_03GHKEPEMO@doc@				; `string'
PUBLIC	??_C@_0BD@DMPJCPHP@application?1msword@		; `string'
PUBLIC	??_C@_03JACLIBNI@exe@				; `string'
PUBLIC	??_C@_0BJ@JDCJMJCJ@application?1octet?9stream@	; `string'
PUBLIC	??_C@_02JIPGGKDE@gz@				; `string'
PUBLIC	??_C@_0BB@JGMCIAKF@application?1gzip@		; `string'
PUBLIC	??_C@_03DAGBJKHL@ico@				; `string'
PUBLIC	??_C@_0N@DKCCOJIM@image?1x?9icon@		; `string'
PUBLIC	??_C@_04CLCAKCEI@json@				; `string'
PUBLIC	??_C@_0BB@MDJGEIPD@application?1json@		; `string'
PUBLIC	??_C@_03CNBJFNFA@mov@				; `string'
PUBLIC	??_C@_0BA@MEHPJOJG@video?1quicktime@		; `string'
PUBLIC	??_C@_03LHGNACFN@mp3@				; `string'
PUBLIC	??_C@_0L@DOFAEOCL@audio?1mpeg@			; `string'
PUBLIC	??_C@_03PICMJEJK@mp4@				; `string'
PUBLIC	??_C@_09GGJCJIJ@video?1mp4@			; `string'
PUBLIC	??_C@_04FHOAOPCJ@mpeg@				; `string'
PUBLIC	??_C@_0L@NDKAOLEK@video?1mpeg@			; `string'
PUBLIC	??_C@_03MJPNCPKC@pdf@				; `string'
PUBLIC	??_C@_0BA@MHMDKHOF@application?1pdf@		; `string'
PUBLIC	??_C@_05HNDFGKM@shtml@				; `string'
PUBLIC	??_C@_03KCKOFLPB@tgz@				; `string'
PUBLIC	??_C@_0BD@LHPABEHA@application?1tar?9gz@	; `string'
PUBLIC	??_C@_03BICDMHKB@wav@				; `string'
PUBLIC	??_C@_09KOEADLDC@audio?1wav@			; `string'
PUBLIC	??_C@_04BKLLFFLE@webp@				; `string'
PUBLIC	??_C@_0L@GNMNMNM@image?1webp@			; `string'
PUBLIC	??_C@_03LCAAOJEC@zip@				; `string'
PUBLIC	??_C@_0BA@LMDOGBAF@application?1zip@		; `string'
PUBLIC	??_C@_03FOICNDPP@3gp@				; `string'
PUBLIC	??_C@_0L@IGCDBAML@video?13gpp@			; `string'
PUBLIC	??_C@_06GOGCPOMN@bytes?$DN@			; `string'
PUBLIC	??_C@_0BA@KDJCHKHJ@Accept?9Encoding@		; `string'
PUBLIC	??_C@_04HOHEGKBO@gzip@				; `string'
PUBLIC	??_C@_05HPILMEBC@?$CFs?4gz@			; `string'
PUBLIC	??_C@_0L@CKKNHDCB@Not?5found?6@			; `string'
PUBLIC	??_C@_0O@PLENHEOP@If?9None?9Match@		; `string'
PUBLIC	??_C@_05CFMCGLCK@Range@				; `string'
PUBLIC	??_C@_0BO@IKDCAKCB@Content?9Range?3?5bytes?5?$CK?1?$CFlld?$AN?6@ ; `string'
PUBLIC	??_C@_0CG@JKKKPNMP@Content?9Range?3?5bytes?5?$CFllu?9?$CFllu?1@ ; `string'
PUBLIC	??_C@_0BJ@MBGLAIMM@Content?9Encoding?3?5gzip?$AN?6@ ; `string'
PUBLIC	??_C@_0EN@DLMBNGCO@HTTP?11?41?5?$CFd?5?$CFs?$AN?6Content?9Type?3?5?$CF@ ; `string'
PUBLIC	??_C@_04BINJNOJD@HEAD@				; `string'
PUBLIC	??_C@_06GIIGBPHC@?$CFs?$CFc?$CFs@		; `string'
PUBLIC	??_C@_0O@NAEKIGEC@printdirentry@		; `string'
PUBLIC	??_C@_0N@BELOEIBP@?$CFs?5truncated@		; `string'
PUBLIC	??_C@_0BB@MFGDKDCP@?$CFlu?5stat?$CI?$CFs?$CJ?3?5?$CFd@ ; `string'
PUBLIC	??_C@_01KMDKNFGN@?1@				; `string'
PUBLIC	??_C@_05DDGJGJB@?$FLDIR?$FN@			; `string'
PUBLIC	??_C@_04BFAHMMK@?$CFlld@			; `string'
PUBLIC	??_C@_03FKNCMABI@?$CFlu@			; `string'
PUBLIC	??_C@_0FI@IPGJIOJD@?5?5?$DMtr?$DO?$DMtd?$DO?$DMa?5href?$DN?$CC?$CF?4?$CKs?$CFs?$CC?$DO?$CFs?$CFs@ ; `string'
PUBLIC	??_C@_0BMF@KFFEPKPH@?$DMscript?$DOfunction?5srt?$CItb?0?5sc?0?5so@ ; `string'
PUBLIC	??_C@_0BME@DCNGJJJ@for?5?$CIvar?5i?5?$DN?50?$DL?5i?5?$DM?5tr?4length?$DL?5@ ; `string'
PUBLIC	??_C@_0FI@EOBPCODB@HTTP?11?41?5200?5OK?$AN?6Content?9Type?3?5@ ; `string'
PUBLIC	??_C@_0BII@BEKFAOHG@?$DM?$CBDOCTYPE?5html?$DO?$DMhtml?$DO?$DMhead?$DO?$DMtit@ ; `string'
PUBLIC	??_C@_0FA@IECPBOOL@?5?5?$DMtr?$DO?$DMtd?$DO?$DMa?5href?$DN?$CC?4?4?$CC?$DO?4?4?$DM?1a?$DO?$DM?1@ ; `string'
PUBLIC	??_C@_04KCOIGPKP@7?412@				; `string'
PUBLIC	??_C@_0HB@HMGLNPND@?$DM?1tbody?$DO?$DMtfoot?$DO?$DMtr?$DO?$DMtd?5colspan?$DN@ ; `string'
PUBLIC	??_C@_0BD@CCPJKDLJ@Exceeded?5path?5size@	; `string'
PUBLIC	??_C@_0N@KKHAJPLM@Invalid?5path@		; `string'
PUBLIC	??_C@_0N@GNCHAPHH@uri_to_path2@			; `string'
PUBLIC	??_C@_0BC@GKOJEFML@?$CFlu?5?$CF?4?$CKs?5?9?$DO?5?$CFs?5?$CFd@ ; `string'
PUBLIC	??_C@_0DL@NDIFMFHG@HTTP?11?41?5301?5Moved?$AN?6Location?3?5?$CF@ ; `string'
PUBLIC	??_C@_0M@LFMFBCIF@?1index?4html@		; `string'
PUBLIC	??_C@_0N@LEPNGMOP@?1index?4shtml@		; `string'
PUBLIC	??_C@_0P@KMKBALOG@?1index?4html?4gz@		; `string'
PUBLIC	??_C@_0O@NAFGPKMI@Authorization@		; `string'
PUBLIC	??_C@_06FFOGOLGD@Basic?5@			; `string'
PUBLIC	??_C@_07KGFIHGLJ@Bearer?5@			; `string'
PUBLIC	??_C@_06EGBLANDJ@Cookie@			; `string'
PUBLIC	??_C@_0N@GOCCFLMF@access_token@			; `string'
PUBLIC	??_C@_06KLHHMIGM@offset@			; `string'
PUBLIC	??_C@_03JALODAI@?$CFld@				; `string'
PUBLIC	??_C@_0P@HACFLAGA@mg_http_upload@		; `string'
PUBLIC	??_C@_0BF@OCKNFKIO@?$CFs?5?9?$DO?5?$CFd?5bytes?5?$EA?5?$CFld@ ; `string'
PUBLIC	??_C@_0BA@ELGKPKEI@offset?5required@		; `string'
PUBLIC	??_C@_0BE@OMMGLANF@?$CFs?3?5offset?5mismatch@	; `string'
PUBLIC	??_C@_0BJ@IDGNCELE@?$CFs?3?5over?5max?5size?5of?5?$CFlu@ ; `string'
PUBLIC	??_C@_0N@BCMHMOCL@open?$CI?$CFs?$CJ?3?5?$CFd@	; `string'
PUBLIC	??_C@_0BG@HFEJOELF@HTTP?5parse?0?5?$CFlu?5bytes@ ; `string'
PUBLIC	??_C@_0BC@ELHLFCNH@Transfer?9Encoding@		; `string'
PUBLIC	??_C@_07KCKHAHHI@chunked@			; `string'
PUBLIC	??_C@_0BK@LOOLINP@Invalid?5Transfer?9Encoding@	; `string'
PUBLIC	??_C@_0O@HABHDEMH@Invalid?5chunk@		; `string'
PUBLIC	??_C@_05CMMBDMDD@?1quit@			; `string'
PUBLIC	??_C@_03DJDALPN@ok?6@				; `string'
PUBLIC	??_C@_06HAHILENG@?1debug@			; `string'
PUBLIC	??_C@_07JPIHOLMH@$?4level@			; `string'
PUBLIC	??_C@_0BH@JNCLOPOB@Debug?5level?5set?5to?5?$CFd?6@ ; `string'
PUBLIC	??_C@_03JNMAOHCK@hi?6@				; `string'
PUBLIC	??_C@_0BA@HJJGBKFB@mg_iobuf_resize@		; `string'
PUBLIC	??_C@_0L@OOAJBPCA@?$CFlld?9?$DO?$CFlld@		; `string'
PUBLIC	??_C@_07GIIPGIPO@?$AI?$AM?6?$AN?7?2?$CC@	; `string'
PUBLIC	??_C@_07HHNAIFDF@bfnrt?2?$CC@			; `string'
PUBLIC	??_C@_01EPMOAMKG@$@				; `string'
PUBLIC	??_C@_04MLLLIHIP@null@				; `string'
PUBLIC	??_C@_0BD@KJILOAFG@?$CF?96llx?5?$CFd?5?$CFs?3?$CFd?3?$CFs@ ; `string'
PUBLIC	??_C@_02KNHHEEKP@?5?5@				; `string'
PUBLIC	??_C@_03NDEAONJP@?5?5?5@			; `string'
PUBLIC	??_C@_02JDJKNLJP@?$AA?$PP@			; `string'
PUBLIC	??_C@_0M@JCOIBNAC@mg_mqtt_pub@			; `string'
PUBLIC	??_C@_0BF@LDABDMHN@?$CFlu?5?$FL?$CF?4?$CKs?$FN?5?9?$DO?5?$FL?$CF?4?$CKs?$FN@ ; `string'
PUBLIC	??_C@_07IJPJCEBD@mqtt_cb@			; `string'
PUBLIC	??_C@_0BL@MPELNGON@?$CFlu?5MQTT?5malformed?5message@ ; `string'
PUBLIC	??_C@_0BO@KABHPGHA@?$CFlu?5MQTT?5CMD?5?$CFd?5len?5?$CFd?5?$FL?$CF?4?$CKs?$FN@ ; `string'
PUBLIC	??_C@_0O@MHLPOCL@?$CFlu?5Connected@		; `string'
PUBLIC	??_C@_0BO@FOKBBNGE@?$CFlu?5MQTT?5auth?5failed?0?5code?5?$CFd@ ; `string'
PUBLIC	??_C@_09IPAEKDAI@localhost@			; `string'
PUBLIC	??_C@_0O@KLFCDPFL@mg_close_conn@		; `string'
PUBLIC	??_C@_0P@KGEINCCM@?$CFlu?5?$CFld?5closed@	; `string'
PUBLIC	??_C@_0L@KLLEPGGK@mg_connect@			; `string'
PUBLIC	??_C@_08FJNKCABM@null?5url@			; `string'
PUBLIC	??_C@_03CDNNJDDN@OOM@				; `string'
PUBLIC	??_C@_04MNPDLBCA@udp?3@				; `string'
PUBLIC	??_C@_09MIIPHL@mg_listen@			; `string'
PUBLIC	??_C@_06BEBLAAFA@OOM?5?$CFs@			; `string'
PUBLIC	??_C@_0BF@LPNPPMDI@Failed?3?5?$CFs?0?5errno?5?$CFd@ ; `string'
PUBLIC	??_C@_0M@HDNIMCKK@mg_mgr_free@			; `string'
PUBLIC	??_C@_0BH@JCIDLGBI@All?5connections?5closed@	; `string'
PUBLIC	??_C@_0BB@OGCNOFJ@udp?3?1?18?48?48?48?353@	; `string'
PUBLIC	??_C@_0CA@BFGPOJEH@udp?3?1?1?$FL2001?34860?34860?3?38888?$FN?353@ ; `string'
PUBLIC	??_C@_0M@PCENNPGA@?$CFd?4?$CFd?4?$CFd?4?$CFd@	; `string'
PUBLIC	??_C@_0BK@HMDKCEIC@?$FL?$CFx?3?$CFx?3?$CFx?3?$CFx?3?$CFx?3?$CFx?3?$CFx?3?$CFx?$FN@ ; `string'
PUBLIC	??_C@_06CECBMHAI@?$CFM?3?$CFhu@			; `string'
PUBLIC	??_C@_0BO@ONJEFEPB@?$CF02x?3?$CF02x?3?$CF02x?3?$CF02x?3?$CF02x?3?$CF02x@ ; `string'
PUBLIC	??_C@_0EB@NFPJKBDG@ABCDEFGHIJKLMNOPQRSTUVWXYZabcde@ ; `string'
PUBLIC	??_C@_0BB@KBBHFJEB@?$CC?$CF?4?$CKs?5not?5found?$CC@ ; `string'
PUBLIC	??_C@_08CIJFEAAL@$?4method@			; `string'
PUBLIC	??_C@_08OBNEFDHG@$?4result@			; `string'
PUBLIC	??_C@_07DMPMNMMD@$?4error@			; `string'
PUBLIC	??_C@_02OOGLLHAM@?$CFm@				; `string'
PUBLIC	??_C@_04LOGAHCH@$?4id@				; `string'
PUBLIC	??_C@_06KJFADLGN@result@			; `string'
PUBLIC	??_C@_02EGCJHIOB@id@				; `string'
PUBLIC	??_C@_0N@PNCPKKEK@?$HL?$CFm?3?$CF?4?$CKs?0?$CFm?3@ ; `string'
PUBLIC	??_C@_01CELHOKLL@?$HN@				; `string'
PUBLIC	??_C@_01HCONENDN@?$HL@				; `string'
PUBLIC	??_C@_08BPPEJENG@?$CFm?3?$CF?4?$CKs?0@		; `string'
PUBLIC	??_C@_07ONPBMBOP@message@			; `string'
PUBLIC	??_C@_04NDFOBODE@code@				; `string'
PUBLIC	??_C@_05KKCIMGE@error@				; `string'
PUBLIC	??_C@_0O@OFIPIANJ@?$CFm?3?$HL?$CFm?3?$CFd?0?$CFm?3@ ; `string'
PUBLIC	??_C@_02MGAGNKFF@?$HN?$HN@			; `string'
PUBLIC	??_C@_01IHBHIGKO@?0@				; `string'
PUBLIC	??_C@_04KHKDDGAF@?$CFs?$CFm@			; `string'
PUBLIC	??_C@_04JGKFJELO@?$FL?$CFM?$FN@			; `string'
PUBLIC	??_C@_0O@HEBLIINH@mg_sntp_parse@		; `string'
PUBLIC	??_C@_0P@IGMAHBCN@corrupt?5packet@		; `string'
PUBLIC	??_C@_0BD@ODENNIKF@not?5a?5server?5reply@	; `string'
PUBLIC	??_C@_0BM@DMBHJOKM@server?5sent?5a?5kiss?5of?5death@ ; `string'
PUBLIC	??_C@_0BP@BOHGPAAD@?$CFlld?5?$CFlld?5?$CFlld?5?$CFlld?5delta?3?$CFlld@ ; `string'
PUBLIC	??_C@_0BH@HEKJPPM@unexpected?5version?3?5?$CFd@	; `string'
PUBLIC	??_C@_07IENOENON@sntp_cb@			; `string'
PUBLIC	??_C@_0CB@NMDLDFPE@?$CFlu?5got?5time?3?5?$CFlld?5ms?5from?5epoc@ ; `string'
PUBLIC	??_C@_05EENHEND@?$CFu?4?$CFu@			; `string'
PUBLIC	??_C@_0BA@IPEAOCEK@mg_sntp_request@		; `string'
PUBLIC	??_C@_0BI@GABKECNF@?$CFlu?5wait?5until?5resolved@ ; `string'
PUBLIC	??_C@_0BK@GMHACAIO@udp?3?1?1time?4google?4com?3123@ ; `string'
PUBLIC	??_C@_05GCGDNJJE@iolog@				; `string'
PUBLIC	??_C@_02NOFGAPG@?$DM?9@				; `string'
PUBLIC	??_C@_02HBOOOICD@?9?$DO@			; `string'
PUBLIC	??_C@_0BF@EEHNBJP@?6?9?9?5?$CFlu?5?$CFM?5?$CFs?5?$CFM?5?$CFld@ ; `string'
PUBLIC	??_C@_07JDKIIIBC@mg_send@			; `string'
PUBLIC	??_C@_0BJ@PDGMPLOC@?$CFlu?5?$CFld?5?$CFd?3?$CFd?5?$CFld?5err?5?$CFd@ ; `string'
PUBLIC	??_C@_0BB@DCONLCEI@mg_open_listener@		; `string'
PUBLIC	??_C@_0BK@JOJCJPAN@invalid?5listening?5URL?3?5?$CFs@ ; `string'
PUBLIC	??_C@_0L@GLCCNLE@socket?3?5?$CFd@		; `string'
PUBLIC	??_C@_0CH@MDOFAPIK@setsockopt?$CISO_EXCLUSIVEADDRUSE?$CJ@ ; `string'
PUBLIC	??_C@_08JIJPKGKG@bind?3?5?$CFd@			; `string'
PUBLIC	??_C@_0L@JNLECNPF@listen?3?5?$CFd@		; `string'
PUBLIC	??_C@_0BB@HBLGCKAG@MG_MAX_RECV_SIZE@		; `string'
PUBLIC	??_C@_09GCLNDOPN@read_conn@			; `string'
PUBLIC	??_C@_0CM@HEALIOMK@?$CFlu?5?$CFp?5snd?5?$CFld?1?$CFld?5rcv?5?$CFld?1?$CFld?5@ ; `string'
PUBLIC	??_C@_0L@EJLBGHPI@write_conn@			; `string'
PUBLIC	??_C@_0CN@BLHHFBGP@?$CFlu?5?$CFld?5snd?5?$CFld?1?$CFld?5rcv?5?$CFld?1?$CFld@ ; `string'
PUBLIC	??_C@_0N@PIIOOFNF@socket?5error@		; `string'
PUBLIC	??_C@_0N@NLOJAIMF@socket?$CI?$CJ?3?5?$CFd@	; `string'
PUBLIC	??_C@_0BE@CANALBHN@mg_connect_resolved@		; `string'
PUBLIC	??_C@_0BD@BGCIPAPF@?$CFlu?5?$CFld?5?9?$DO?5?$CFM?5pend@ ; `string'
PUBLIC	??_C@_0M@IFBHBJKC@connect?3?5?$CFd@		; `string'
PUBLIC	??_C@_0M@JPIAAHBH@accept_conn@			; `string'
PUBLIC	??_C@_0BM@MOEFGJHP@?$CFlu?5accept?5failed?0?5errno?5?$CFd@ ; `string'
PUBLIC	??_C@_07BFGKJN@?$CFlu?5OOM@			; `string'
PUBLIC	??_C@_0BK@FOFCOHME@?$CFlu?5?$CFld?5accepted?5?$CFM?5?9?$DO?5?$CFM@ ; `string'
PUBLIC	??_C@_0P@BJADDKBJ@mg_wakeup_init@		; `string'
PUBLIC	??_C@_0BK@NGAOEDDO@Cannot?5create?5socket?5pair@ ; `string'
PUBLIC	??_C@_0BA@FLEIGMKI@?$CFlu?5?$CFp?5pipe?5?$CFlu@	; `string'
PUBLIC	??_C@_0M@OABIKPAM@mg_mgr_poll@			; `string'
PUBLIC	??_C@_0BE@INNKIICP@?$CFlu?5?$CFc?$CFc?5?$CFc?$CFc?$CFc?$CFc?$CFc@ ; `string'
PUBLIC	??_C@_0BA@BDBJPBPM@SSI?5not?5enabled@		; `string'
PUBLIC	??_C@_0BD@JJGECGC@TLS?5is?5not?5enabled@	; `string'
PUBLIC	??_C@_04HILLDDDP@wss?3@				; `string'
PUBLIC	??_C@_06FOAKIDDH@https?3@			; `string'
PUBLIC	??_C@_06NDJNKKHE@mqtts?3@			; `string'
PUBLIC	??_C@_04JKEBHBLC@ssl?3@				; `string'
PUBLIC	??_C@_04DHGBAOCG@tls?3@				; `string'
PUBLIC	??_C@_05BIDNLEPK@tcps?3@			; `string'
PUBLIC	??_C@_05DDMNBEIG@http?3@			; `string'
PUBLIC	??_C@_03FLENLALG@ws?3@				; `string'
PUBLIC	??_C@_05KMOJKCJJ@mqtt?3@			; `string'
PUBLIC	??_C@_0BB@DHKKPGMP@?$CFd?4?$CFd?4?$CFd?4?$CFd?1?$CFd?$CFn@ ; `string'
PUBLIC	??_C@_0O@LGGJJEIN@?$CFd?4?$CFd?4?$CFd?4?$CFd?$CFn@ ; `string'
PUBLIC	??_C@_0CF@DPPCDNJI@258EAFA5?9E914?947DA?995CA?9C5AB0DC@ ; `string'
PUBLIC	??_C@_0GG@POFBIFLO@HTTP?11?41?5101?5Switching?5Protocol@ ; `string'
PUBLIC	??_C@_0BP@DMDNHPGD@Sec?9WebSocket?9Protocol?3?5?$CF?4?$CKs?$AN?6@ ; `string'
PUBLIC	??_C@_0L@OGHHDJDI@mg_ws_send@			; `string'
PUBLIC	??_C@_0BC@FGABKOKF@WS?5out?3?5?$CFd?5?$FL?$CF?4?$CKs?$FN@ ; `string'
PUBLIC	??_C@_08KKMPEAED@not?5http@			; `string'
PUBLIC	??_C@_03HEBKFNAF@101@				; `string'
PUBLIC	??_C@_0BD@GICIJAKK@ws?5handshake?5error@	; `string'
PUBLIC	??_C@_08JNAIHJJA@mg_ws_cb@			; `string'
PUBLIC	??_C@_07OOPHNCPN@WS?5PONG@			; `string'
PUBLIC	??_C@_0N@IFMBNCDN@?$CFlu?5WS?5CLOSE@		; `string'
PUBLIC	??_C@_0BB@MNJJIOAL@unknown?5WS?5op?5?$CFd@	; `string'
PUBLIC	??_C@_0HJ@GLCKOEAJ@GET?5?$CFs?5HTTP?11?41?$AN?6Upgrade?3?5webso@ ; `string'
PUBLIC	??_C@_0BC@DFHBMDHG@Sec?9WebSocket?9Key@		; `string'
PUBLIC	??_C@_0BF@MMCLFHAA@WS?5upgrade?5expected?6@	; `string'
PUBLIC	??_C@_0BH@JBAMIGCM@Sec?9WebSocket?9Protocol@	; `string'
PUBLIC	mg_fs_packed
PUBLIC	mg_fs_posix
PUBLIC	mg_log_level
EXTRN	__imp___WSAFDIsSet:PROC
EXTRN	__imp_accept:PROC
EXTRN	__imp_bind:PROC
EXTRN	__imp___stdio_common_vsscanf:PROC
EXTRN	__imp_closesocket:PROC
EXTRN	__imp_select:PROC
EXTRN	__imp__mkdir:PROC
EXTRN	__imp_listen:PROC
EXTRN	__imp_WideCharToMultiByte:PROC
EXTRN	__imp_atoi:PROC
EXTRN	__imp_free:PROC
EXTRN	__imp_strtol:PROC
EXTRN	__imp__wfopen:PROC
EXTRN	__imp_fwrite:PROC
EXTRN	__imp_putchar:PROC
EXTRN	__imp_WSAStartup:PROC
EXTRN	__imp_strncmp:PROC
EXTRN	__imp_getpeername:PROC
EXTRN	__imp_rename:PROC
EXTRN	__imp_getsockname:PROC
EXTRN	__imp_Sleep:PROC
EXTRN	__imp_MultiByteToWideChar:PROC
EXTRN	__imp_send:PROC
EXTRN	__imp_socket:PROC
EXTRN	__imp_connect:PROC
EXTRN	__imp_GetFileAttributesW:PROC
EXTRN	__imp_FindClose:PROC
EXTRN	__imp_remove:PROC
EXTRN	__imp_recvfrom:PROC
EXTRN	__imp_recv:PROC
EXTRN	__imp_FindNextFileW:PROC
EXTRN	__imp__wstat64:PROC
EXTRN	__imp_SetLastError:PROC
EXTRN	__imp_calloc:PROC
EXTRN	__imp_sendto:PROC
EXTRN	__imp_FindFirstFileW:PROC
EXTRN	__imp_ioctlsocket:PROC
EXTRN	__imp_setsockopt:PROC
EXTRN	__imp_WSAGetLastError:PROC
;	COMDAT ??_C@_0BH@JBAMIGCM@Sec?9WebSocket?9Protocol@
CONST	SEGMENT
??_C@_0BH@JBAMIGCM@Sec?9WebSocket?9Protocol@ DB 'Sec-WebSocket-Protocol', 00H ; `string'
CONST	ENDS
;	COMDAT ??_C@_0BF@MMCLFHAA@WS?5upgrade?5expected?6@
CONST	SEGMENT
??_C@_0BF@MMCLFHAA@WS?5upgrade?5expected?6@ DB 'WS upgrade expected', 0aH
	DB	00H						; `string'
CONST	ENDS
;	COMDAT ??_C@_0BC@DFHBMDHG@Sec?9WebSocket?9Key@
CONST	SEGMENT
??_C@_0BC@DFHBMDHG@Sec?9WebSocket?9Key@ DB 'Sec-WebSocket-Key', 00H ; `string'
CONST	ENDS
;	COMDAT ??_C@_0HJ@GLCKOEAJ@GET?5?$CFs?5HTTP?11?41?$AN?6Upgrade?3?5webso@
CONST	SEGMENT
??_C@_0HJ@GLCKOEAJ@GET?5?$CFs?5HTTP?11?41?$AN?6Upgrade?3?5webso@ DB 'GET '
	DB	'%s HTTP/1.1', 0dH, 0aH, 'Upgrade: websocket', 0dH, 0aH, 'Host'
	DB	': %.*s', 0dH, 0aH, 'Connection: Upgrade', 0dH, 0aH, 'Sec-WebS'
	DB	'ocket-Version: 13', 0dH, 0aH, 'Sec-WebSocket-Key: %s', 0dH, 0aH
	DB	00H						; `string'
CONST	ENDS
;	COMDAT ??_C@_0BB@MNJJIOAL@unknown?5WS?5op?5?$CFd@
CONST	SEGMENT
??_C@_0BB@MNJJIOAL@unknown?5WS?5op?5?$CFd@ DB 'unknown WS op %d', 00H ; `string'
CONST	ENDS
;	COMDAT ??_C@_0N@IFMBNCDN@?$CFlu?5WS?5CLOSE@
CONST	SEGMENT
??_C@_0N@IFMBNCDN@?$CFlu?5WS?5CLOSE@ DB '%lu WS CLOSE', 00H ; `string'
CONST	ENDS
;	COMDAT ??_C@_07OOPHNCPN@WS?5PONG@
CONST	SEGMENT
??_C@_07OOPHNCPN@WS?5PONG@ DB 'WS PONG', 00H		; `string'
CONST	ENDS
;	COMDAT ??_C@_08JNAIHJJA@mg_ws_cb@
CONST	SEGMENT
??_C@_08JNAIHJJA@mg_ws_cb@ DB 'mg_ws_cb', 00H		; `string'
CONST	ENDS
;	COMDAT ??_C@_0BD@GICIJAKK@ws?5handshake?5error@
CONST	SEGMENT
??_C@_0BD@GICIJAKK@ws?5handshake?5error@ DB 'ws handshake error', 00H ; `string'
CONST	ENDS
;	COMDAT ??_C@_03HEBKFNAF@101@
CONST	SEGMENT
??_C@_03HEBKFNAF@101@ DB '101', 00H			; `string'
CONST	ENDS
;	COMDAT ??_C@_08KKMPEAED@not?5http@
CONST	SEGMENT
??_C@_08KKMPEAED@not?5http@ DB 'not http', 00H		; `string'
CONST	ENDS
;	COMDAT ??_C@_0BC@FGABKOKF@WS?5out?3?5?$CFd?5?$FL?$CF?4?$CKs?$FN@
CONST	SEGMENT
??_C@_0BC@FGABKOKF@WS?5out?3?5?$CFd?5?$FL?$CF?4?$CKs?$FN@ DB 'WS out: %d '
	DB	'[%.*s]', 00H				; `string'
CONST	ENDS
;	COMDAT ??_C@_0L@OGHHDJDI@mg_ws_send@
CONST	SEGMENT
??_C@_0L@OGHHDJDI@mg_ws_send@ DB 'mg_ws_send', 00H	; `string'
CONST	ENDS
;	COMDAT ??_C@_0BP@DMDNHPGD@Sec?9WebSocket?9Protocol?3?5?$CF?4?$CKs?$AN?6@
CONST	SEGMENT
??_C@_0BP@DMDNHPGD@Sec?9WebSocket?9Protocol?3?5?$CF?4?$CKs?$AN?6@ DB 'Sec'
	DB	'-WebSocket-Protocol: %.*s', 0dH, 0aH, 00H	; `string'
CONST	ENDS
;	COMDAT ??_C@_0GG@POFBIFLO@HTTP?11?41?5101?5Switching?5Protocol@
CONST	SEGMENT
??_C@_0GG@POFBIFLO@HTTP?11?41?5101?5Switching?5Protocol@ DB 'HTTP/1.1 101'
	DB	' Switching Protocols', 0dH, 0aH, 'Upgrade: websocket', 0dH, 0aH
	DB	'Connection: Upgrade', 0dH, 0aH, 'Sec-WebSocket-Accept: %s', 0dH
	DB	0aH, 00H					; `string'
CONST	ENDS
;	COMDAT ??_C@_0CF@DPPCDNJI@258EAFA5?9E914?947DA?995CA?9C5AB0DC@
CONST	SEGMENT
??_C@_0CF@DPPCDNJI@258EAFA5?9E914?947DA?995CA?9C5AB0DC@ DB '258EAFA5-E914'
	DB	'-47DA-95CA-C5AB0DC85B11', 00H		; `string'
CONST	ENDS
;	COMDAT ??_C@_0O@LGGJJEIN@?$CFd?4?$CFd?4?$CFd?4?$CFd?$CFn@
CONST	SEGMENT
??_C@_0O@LGGJJEIN@?$CFd?4?$CFd?4?$CFd?4?$CFd?$CFn@ DB '%d.%d.%d.%d%n', 00H ; `string'
CONST	ENDS
;	COMDAT ??_C@_0BB@DHKKPGMP@?$CFd?4?$CFd?4?$CFd?4?$CFd?1?$CFd?$CFn@
CONST	SEGMENT
??_C@_0BB@DHKKPGMP@?$CFd?4?$CFd?4?$CFd?4?$CFd?1?$CFd?$CFn@ DB '%d.%d.%d.%'
	DB	'd/%d%n', 00H				; `string'
CONST	ENDS
;	COMDAT ??_C@_05KMOJKCJJ@mqtt?3@
CONST	SEGMENT
??_C@_05KMOJKCJJ@mqtt?3@ DB 'mqtt:', 00H		; `string'
CONST	ENDS
;	COMDAT ??_C@_03FLENLALG@ws?3@
CONST	SEGMENT
??_C@_03FLENLALG@ws?3@ DB 'ws:', 00H			; `string'
CONST	ENDS
;	COMDAT ??_C@_05DDMNBEIG@http?3@
CONST	SEGMENT
??_C@_05DDMNBEIG@http?3@ DB 'http:', 00H		; `string'
CONST	ENDS
;	COMDAT ??_C@_05BIDNLEPK@tcps?3@
CONST	SEGMENT
??_C@_05BIDNLEPK@tcps?3@ DB 'tcps:', 00H		; `string'
CONST	ENDS
;	COMDAT ??_C@_04DHGBAOCG@tls?3@
CONST	SEGMENT
??_C@_04DHGBAOCG@tls?3@ DB 'tls:', 00H			; `string'
CONST	ENDS
;	COMDAT ??_C@_04JKEBHBLC@ssl?3@
CONST	SEGMENT
??_C@_04JKEBHBLC@ssl?3@ DB 'ssl:', 00H			; `string'
CONST	ENDS
;	COMDAT ??_C@_06NDJNKKHE@mqtts?3@
CONST	SEGMENT
??_C@_06NDJNKKHE@mqtts?3@ DB 'mqtts:', 00H		; `string'
CONST	ENDS
;	COMDAT ??_C@_06FOAKIDDH@https?3@
CONST	SEGMENT
??_C@_06FOAKIDDH@https?3@ DB 'https:', 00H		; `string'
CONST	ENDS
;	COMDAT ??_C@_04HILLDDDP@wss?3@
CONST	SEGMENT
??_C@_04HILLDDDP@wss?3@ DB 'wss:', 00H			; `string'
CONST	ENDS
;	COMDAT ??_C@_0BD@JJGECGC@TLS?5is?5not?5enabled@
CONST	SEGMENT
??_C@_0BD@JJGECGC@TLS?5is?5not?5enabled@ DB 'TLS is not enabled', 00H ; `string'
CONST	ENDS
;	COMDAT ??_C@_0BA@BDBJPBPM@SSI?5not?5enabled@
CONST	SEGMENT
??_C@_0BA@BDBJPBPM@SSI?5not?5enabled@ DB 'SSI not enabled', 00H ; `string'
CONST	ENDS
;	COMDAT ??_C@_0BE@INNKIICP@?$CFlu?5?$CFc?$CFc?5?$CFc?$CFc?$CFc?$CFc?$CFc@
CONST	SEGMENT
??_C@_0BE@INNKIICP@?$CFlu?5?$CFc?$CFc?5?$CFc?$CFc?$CFc?$CFc?$CFc@ DB '%lu'
	DB	' %c%c %c%c%c%c%c', 00H			; `string'
CONST	ENDS
;	COMDAT ??_C@_0M@OABIKPAM@mg_mgr_poll@
CONST	SEGMENT
??_C@_0M@OABIKPAM@mg_mgr_poll@ DB 'mg_mgr_poll', 00H	; `string'
CONST	ENDS
;	COMDAT ??_C@_0BA@FLEIGMKI@?$CFlu?5?$CFp?5pipe?5?$CFlu@
CONST	SEGMENT
??_C@_0BA@FLEIGMKI@?$CFlu?5?$CFp?5pipe?5?$CFlu@ DB '%lu %p pipe %lu', 00H ; `string'
CONST	ENDS
;	COMDAT ??_C@_0BK@NGAOEDDO@Cannot?5create?5socket?5pair@
CONST	SEGMENT
??_C@_0BK@NGAOEDDO@Cannot?5create?5socket?5pair@ DB 'Cannot create socket'
	DB	' pair', 00H					; `string'
CONST	ENDS
;	COMDAT ??_C@_0P@BJADDKBJ@mg_wakeup_init@
CONST	SEGMENT
??_C@_0P@BJADDKBJ@mg_wakeup_init@ DB 'mg_wakeup_init', 00H ; `string'
CONST	ENDS
;	COMDAT ??_C@_0BK@FOFCOHME@?$CFlu?5?$CFld?5accepted?5?$CFM?5?9?$DO?5?$CFM@
CONST	SEGMENT
??_C@_0BK@FOFCOHME@?$CFlu?5?$CFld?5accepted?5?$CFM?5?9?$DO?5?$CFM@ DB '%l'
	DB	'u %ld accepted %M -> %M', 00H		; `string'
CONST	ENDS
;	COMDAT ??_C@_07BFGKJN@?$CFlu?5OOM@
CONST	SEGMENT
??_C@_07BFGKJN@?$CFlu?5OOM@ DB '%lu OOM', 00H		; `string'
CONST	ENDS
;	COMDAT ??_C@_0BM@MOEFGJHP@?$CFlu?5accept?5failed?0?5errno?5?$CFd@
CONST	SEGMENT
??_C@_0BM@MOEFGJHP@?$CFlu?5accept?5failed?0?5errno?5?$CFd@ DB '%lu accept'
	DB	' failed, errno %d', 00H			; `string'
CONST	ENDS
;	COMDAT ??_C@_0M@JPIAAHBH@accept_conn@
CONST	SEGMENT
??_C@_0M@JPIAAHBH@accept_conn@ DB 'accept_conn', 00H	; `string'
CONST	ENDS
;	COMDAT ??_C@_0M@IFBHBJKC@connect?3?5?$CFd@
CONST	SEGMENT
??_C@_0M@IFBHBJKC@connect?3?5?$CFd@ DB 'connect: %d', 00H ; `string'
CONST	ENDS
;	COMDAT ??_C@_0BD@BGCIPAPF@?$CFlu?5?$CFld?5?9?$DO?5?$CFM?5pend@
CONST	SEGMENT
??_C@_0BD@BGCIPAPF@?$CFlu?5?$CFld?5?9?$DO?5?$CFM?5pend@ DB '%lu %ld -> %M'
	DB	' pend', 00H					; `string'
CONST	ENDS
;	COMDAT ??_C@_0BE@CANALBHN@mg_connect_resolved@
CONST	SEGMENT
??_C@_0BE@CANALBHN@mg_connect_resolved@ DB 'mg_connect_resolved', 00H ; `string'
CONST	ENDS
;	COMDAT ??_C@_0N@NLOJAIMF@socket?$CI?$CJ?3?5?$CFd@
CONST	SEGMENT
??_C@_0N@NLOJAIMF@socket?$CI?$CJ?3?5?$CFd@ DB 'socket(): %d', 00H ; `string'
CONST	ENDS
;	COMDAT ??_C@_0N@PIIOOFNF@socket?5error@
CONST	SEGMENT
??_C@_0N@PIIOOFNF@socket?5error@ DB 'socket error', 00H	; `string'
CONST	ENDS
;	COMDAT ??_C@_0CN@BLHHFBGP@?$CFlu?5?$CFld?5snd?5?$CFld?1?$CFld?5rcv?5?$CFld?1?$CFld@
CONST	SEGMENT
??_C@_0CN@BLHHFBGP@?$CFlu?5?$CFld?5snd?5?$CFld?1?$CFld?5rcv?5?$CFld?1?$CFld@ DB '%'
	DB	'lu %ld snd %ld/%ld rcv %ld/%ld n=%ld err=%d', 00H ; `string'
CONST	ENDS
;	COMDAT ??_C@_0L@EJLBGHPI@write_conn@
CONST	SEGMENT
??_C@_0L@EJLBGHPI@write_conn@ DB 'write_conn', 00H	; `string'
CONST	ENDS
;	COMDAT ??_C@_0CM@HEALIOMK@?$CFlu?5?$CFp?5snd?5?$CFld?1?$CFld?5rcv?5?$CFld?1?$CFld?5@
CONST	SEGMENT
??_C@_0CM@HEALIOMK@?$CFlu?5?$CFp?5snd?5?$CFld?1?$CFld?5rcv?5?$CFld?1?$CFld?5@ DB '%'
	DB	'lu %p snd %ld/%ld rcv %ld/%ld n=%ld err=%d', 00H ; `string'
CONST	ENDS
;	COMDAT ??_C@_09GCLNDOPN@read_conn@
CONST	SEGMENT
??_C@_09GCLNDOPN@read_conn@ DB 'read_conn', 00H		; `string'
CONST	ENDS
;	COMDAT ??_C@_0BB@HBLGCKAG@MG_MAX_RECV_SIZE@
CONST	SEGMENT
??_C@_0BB@HBLGCKAG@MG_MAX_RECV_SIZE@ DB 'MG_MAX_RECV_SIZE', 00H ; `string'
CONST	ENDS
;	COMDAT ??_C@_0L@JNLECNPF@listen?3?5?$CFd@
CONST	SEGMENT
??_C@_0L@JNLECNPF@listen?3?5?$CFd@ DB 'listen: %d', 00H	; `string'
CONST	ENDS
;	COMDAT ??_C@_08JIJPKGKG@bind?3?5?$CFd@
CONST	SEGMENT
??_C@_08JIJPKGKG@bind?3?5?$CFd@ DB 'bind: %d', 00H	; `string'
CONST	ENDS
;	COMDAT ??_C@_0CH@MDOFAPIK@setsockopt?$CISO_EXCLUSIVEADDRUSE?$CJ@
CONST	SEGMENT
??_C@_0CH@MDOFAPIK@setsockopt?$CISO_EXCLUSIVEADDRUSE?$CJ@ DB 'setsockopt('
	DB	'SO_EXCLUSIVEADDRUSE): %d %d', 00H		; `string'
CONST	ENDS
;	COMDAT ??_C@_0L@GLCCNLE@socket?3?5?$CFd@
CONST	SEGMENT
??_C@_0L@GLCCNLE@socket?3?5?$CFd@ DB 'socket: %d', 00H	; `string'
CONST	ENDS
;	COMDAT ??_C@_0BK@JOJCJPAN@invalid?5listening?5URL?3?5?$CFs@
CONST	SEGMENT
??_C@_0BK@JOJCJPAN@invalid?5listening?5URL?3?5?$CFs@ DB 'invalid listenin'
	DB	'g URL: %s', 00H				; `string'
CONST	ENDS
;	COMDAT ??_C@_0BB@DCONLCEI@mg_open_listener@
CONST	SEGMENT
??_C@_0BB@DCONLCEI@mg_open_listener@ DB 'mg_open_listener', 00H ; `string'
CONST	ENDS
;	COMDAT ??_C@_0BJ@PDGMPLOC@?$CFlu?5?$CFld?5?$CFd?3?$CFd?5?$CFld?5err?5?$CFd@
CONST	SEGMENT
??_C@_0BJ@PDGMPLOC@?$CFlu?5?$CFld?5?$CFd?3?$CFd?5?$CFld?5err?5?$CFd@ DB '%'
	DB	'lu %ld %d:%d %ld err %d', 00H		; `string'
CONST	ENDS
;	COMDAT ??_C@_07JDKIIIBC@mg_send@
CONST	SEGMENT
??_C@_07JDKIIIBC@mg_send@ DB 'mg_send', 00H		; `string'
CONST	ENDS
;	COMDAT ??_C@_0BF@EEHNBJP@?6?9?9?5?$CFlu?5?$CFM?5?$CFs?5?$CFM?5?$CFld@
CONST	SEGMENT
??_C@_0BF@EEHNBJP@?6?9?9?5?$CFlu?5?$CFM?5?$CFs?5?$CFM?5?$CFld@ DB 0aH, '-'
	DB	'- %lu %M %s %M %ld', 00H			; `string'
CONST	ENDS
;	COMDAT ??_C@_02HBOOOICD@?9?$DO@
CONST	SEGMENT
??_C@_02HBOOOICD@?9?$DO@ DB '->', 00H			; `string'
CONST	ENDS
;	COMDAT ??_C@_02NOFGAPG@?$DM?9@
CONST	SEGMENT
??_C@_02NOFGAPG@?$DM?9@ DB '<-', 00H			; `string'
CONST	ENDS
;	COMDAT ??_C@_05GCGDNJJE@iolog@
CONST	SEGMENT
??_C@_05GCGDNJJE@iolog@ DB 'iolog', 00H			; `string'
CONST	ENDS
;	COMDAT ??_C@_0BK@GMHACAIO@udp?3?1?1time?4google?4com?3123@
CONST	SEGMENT
??_C@_0BK@GMHACAIO@udp?3?1?1time?4google?4com?3123@ DB 'udp://time.google'
	DB	'.com:123', 00H				; `string'
CONST	ENDS
;	COMDAT ??_C@_0BI@GABKECNF@?$CFlu?5wait?5until?5resolved@
CONST	SEGMENT
??_C@_0BI@GABKECNF@?$CFlu?5wait?5until?5resolved@ DB '%lu wait until reso'
	DB	'lved', 00H					; `string'
CONST	ENDS
;	COMDAT ??_C@_0BA@IPEAOCEK@mg_sntp_request@
CONST	SEGMENT
??_C@_0BA@IPEAOCEK@mg_sntp_request@ DB 'mg_sntp_request', 00H ; `string'
CONST	ENDS
;	COMDAT ??_C@_05EENHEND@?$CFu?4?$CFu@
CONST	SEGMENT
??_C@_05EENHEND@?$CFu?4?$CFu@ DB '%u.%u', 00H		; `string'
CONST	ENDS
;	COMDAT ??_C@_0CB@NMDLDFPE@?$CFlu?5got?5time?3?5?$CFlld?5ms?5from?5epoc@
CONST	SEGMENT
??_C@_0CB@NMDLDFPE@?$CFlu?5got?5time?3?5?$CFlld?5ms?5from?5epoc@ DB '%lu '
	DB	'got time: %lld ms from epoch', 00H		; `string'
CONST	ENDS
;	COMDAT ??_C@_07IENOENON@sntp_cb@
CONST	SEGMENT
??_C@_07IENOENON@sntp_cb@ DB 'sntp_cb', 00H		; `string'
CONST	ENDS
;	COMDAT ??_C@_0BH@HEKJPPM@unexpected?5version?3?5?$CFd@
CONST	SEGMENT
??_C@_0BH@HEKJPPM@unexpected?5version?3?5?$CFd@ DB 'unexpected version: %'
	DB	'd', 00H					; `string'
CONST	ENDS
;	COMDAT ??_C@_0BP@BOHGPAAD@?$CFlld?5?$CFlld?5?$CFlld?5?$CFlld?5delta?3?$CFlld@
CONST	SEGMENT
??_C@_0BP@BOHGPAAD@?$CFlld?5?$CFlld?5?$CFlld?5?$CFlld?5delta?3?$CFlld@ DB '%'
	DB	'lld %lld %lld %lld delta:%lld', 00H		; `string'
CONST	ENDS
;	COMDAT ??_C@_0BM@DMBHJOKM@server?5sent?5a?5kiss?5of?5death@
CONST	SEGMENT
??_C@_0BM@DMBHJOKM@server?5sent?5a?5kiss?5of?5death@ DB 'server sent a ki'
	DB	'ss of death', 00H				; `string'
CONST	ENDS
;	COMDAT ??_C@_0BD@ODENNIKF@not?5a?5server?5reply@
CONST	SEGMENT
??_C@_0BD@ODENNIKF@not?5a?5server?5reply@ DB 'not a server reply', 00H ; `string'
CONST	ENDS
;	COMDAT ??_C@_0P@IGMAHBCN@corrupt?5packet@
CONST	SEGMENT
??_C@_0P@IGMAHBCN@corrupt?5packet@ DB 'corrupt packet', 00H ; `string'
CONST	ENDS
;	COMDAT ??_C@_0O@HEBLIINH@mg_sntp_parse@
CONST	SEGMENT
??_C@_0O@HEBLIINH@mg_sntp_parse@ DB 'mg_sntp_parse', 00H ; `string'
CONST	ENDS
;	COMDAT ??_C@_04JGKFJELO@?$FL?$CFM?$FN@
CONST	SEGMENT
??_C@_04JGKFJELO@?$FL?$CFM?$FN@ DB '[%M]', 00H		; `string'
CONST	ENDS
;	COMDAT ??_C@_04KHKDDGAF@?$CFs?$CFm@
CONST	SEGMENT
??_C@_04KHKDDGAF@?$CFs?$CFm@ DB '%s%m', 00H		; `string'
CONST	ENDS
;	COMDAT ??_C@_01IHBHIGKO@?0@
CONST	SEGMENT
??_C@_01IHBHIGKO@?0@ DB ',', 00H			; `string'
CONST	ENDS
;	COMDAT ??_C@_02MGAGNKFF@?$HN?$HN@
CONST	SEGMENT
??_C@_02MGAGNKFF@?$HN?$HN@ DB '}}', 00H			; `string'
CONST	ENDS
;	COMDAT ??_C@_0O@OFIPIANJ@?$CFm?3?$HL?$CFm?3?$CFd?0?$CFm?3@
CONST	SEGMENT
??_C@_0O@OFIPIANJ@?$CFm?3?$HL?$CFm?3?$CFd?0?$CFm?3@ DB '%m:{%m:%d,%m:', 00H ; `string'
CONST	ENDS
;	COMDAT ??_C@_05KKCIMGE@error@
CONST	SEGMENT
??_C@_05KKCIMGE@error@ DB 'error', 00H			; `string'
CONST	ENDS
;	COMDAT ??_C@_04NDFOBODE@code@
CONST	SEGMENT
??_C@_04NDFOBODE@code@ DB 'code', 00H			; `string'
CONST	ENDS
;	COMDAT ??_C@_07ONPBMBOP@message@
CONST	SEGMENT
??_C@_07ONPBMBOP@message@ DB 'message', 00H		; `string'
CONST	ENDS
;	COMDAT ??_C@_08BPPEJENG@?$CFm?3?$CF?4?$CKs?0@
CONST	SEGMENT
??_C@_08BPPEJENG@?$CFm?3?$CF?4?$CKs?0@ DB '%m:%.*s,', 00H ; `string'
CONST	ENDS
;	COMDAT ??_C@_01HCONENDN@?$HL@
CONST	SEGMENT
??_C@_01HCONENDN@?$HL@ DB '{', 00H			; `string'
CONST	ENDS
;	COMDAT ??_C@_01CELHOKLL@?$HN@
CONST	SEGMENT
??_C@_01CELHOKLL@?$HN@ DB '}', 00H			; `string'
CONST	ENDS
;	COMDAT ??_C@_0N@PNCPKKEK@?$HL?$CFm?3?$CF?4?$CKs?0?$CFm?3@
CONST	SEGMENT
??_C@_0N@PNCPKKEK@?$HL?$CFm?3?$CF?4?$CKs?0?$CFm?3@ DB '{%m:%.*s,%m:', 00H ; `string'
CONST	ENDS
;	COMDAT ??_C@_02EGCJHIOB@id@
CONST	SEGMENT
??_C@_02EGCJHIOB@id@ DB 'id', 00H			; `string'
CONST	ENDS
;	COMDAT ??_C@_06KJFADLGN@result@
CONST	SEGMENT
??_C@_06KJFADLGN@result@ DB 'result', 00H		; `string'
CONST	ENDS
;	COMDAT ??_C@_04LOGAHCH@$?4id@
CONST	SEGMENT
??_C@_04LOGAHCH@$?4id@ DB '$.id', 00H			; `string'
CONST	ENDS
;	COMDAT ??_C@_02OOGLLHAM@?$CFm@
CONST	SEGMENT
??_C@_02OOGLLHAM@?$CFm@ DB '%m', 00H			; `string'
CONST	ENDS
;	COMDAT ??_C@_07DMPMNMMD@$?4error@
CONST	SEGMENT
??_C@_07DMPMNMMD@$?4error@ DB '$.error', 00H		; `string'
CONST	ENDS
;	COMDAT ??_C@_08OBNEFDHG@$?4result@
CONST	SEGMENT
??_C@_08OBNEFDHG@$?4result@ DB '$.result', 00H		; `string'
CONST	ENDS
;	COMDAT ??_C@_08CIJFEAAL@$?4method@
CONST	SEGMENT
??_C@_08CIJFEAAL@$?4method@ DB '$.method', 00H		; `string'
CONST	ENDS
;	COMDAT ??_C@_0BB@KBBHFJEB@?$CC?$CF?4?$CKs?5not?5found?$CC@
CONST	SEGMENT
??_C@_0BB@KBBHFJEB@?$CC?$CF?4?$CKs?5not?5found?$CC@ DB '"%.*s not found"', 00H ; `string'
CONST	ENDS
;	COMDAT ??_C@_0EB@NFPJKBDG@ABCDEFGHIJKLMNOPQRSTUVWXYZabcde@
CONST	SEGMENT
??_C@_0EB@NFPJKBDG@ABCDEFGHIJKLMNOPQRSTUVWXYZabcde@ DB 'ABCDEFGHIJKLMNOPQ'
	DB	'RSTUVWXYZabcdefghijklmnopqrstuvwxyz0123456789+/', 00H ; `string'
CONST	ENDS
;	COMDAT ??_C@_0BO@ONJEFEPB@?$CF02x?3?$CF02x?3?$CF02x?3?$CF02x?3?$CF02x?3?$CF02x@
CONST	SEGMENT
??_C@_0BO@ONJEFEPB@?$CF02x?3?$CF02x?3?$CF02x?3?$CF02x?3?$CF02x?3?$CF02x@ DB '%'
	DB	'02x:%02x:%02x:%02x:%02x:%02x', 00H		; `string'
CONST	ENDS
;	COMDAT ??_C@_06CECBMHAI@?$CFM?3?$CFhu@
CONST	SEGMENT
??_C@_06CECBMHAI@?$CFM?3?$CFhu@ DB '%M:%hu', 00H	; `string'
CONST	ENDS
;	COMDAT ??_C@_0BK@HMDKCEIC@?$FL?$CFx?3?$CFx?3?$CFx?3?$CFx?3?$CFx?3?$CFx?3?$CFx?3?$CFx?$FN@
CONST	SEGMENT
??_C@_0BK@HMDKCEIC@?$FL?$CFx?3?$CFx?3?$CFx?3?$CFx?3?$CFx?3?$CFx?3?$CFx?3?$CFx?$FN@ DB '['
	DB	'%x:%x:%x:%x:%x:%x:%x:%x]', 00H		; `string'
CONST	ENDS
;	COMDAT ??_C@_0M@PCENNPGA@?$CFd?4?$CFd?4?$CFd?4?$CFd@
CONST	SEGMENT
??_C@_0M@PCENNPGA@?$CFd?4?$CFd?4?$CFd?4?$CFd@ DB '%d.%d.%d.%d', 00H ; `string'
CONST	ENDS
;	COMDAT ??_C@_0CA@BFGPOJEH@udp?3?1?1?$FL2001?34860?34860?3?38888?$FN?353@
CONST	SEGMENT
??_C@_0CA@BFGPOJEH@udp?3?1?1?$FL2001?34860?34860?3?38888?$FN?353@ DB 'udp'
	DB	'://[2001:4860:4860::8888]:53', 00H		; `string'
CONST	ENDS
;	COMDAT ??_C@_0BB@OGCNOFJ@udp?3?1?18?48?48?48?353@
CONST	SEGMENT
??_C@_0BB@OGCNOFJ@udp?3?1?18?48?48?48?353@ DB 'udp://8.8.8.8:53', 00H ; `string'
CONST	ENDS
;	COMDAT ??_C@_0BH@JCIDLGBI@All?5connections?5closed@
CONST	SEGMENT
??_C@_0BH@JCIDLGBI@All?5connections?5closed@ DB 'All connections closed', 00H ; `string'
CONST	ENDS
;	COMDAT ??_C@_0M@HDNIMCKK@mg_mgr_free@
CONST	SEGMENT
??_C@_0M@HDNIMCKK@mg_mgr_free@ DB 'mg_mgr_free', 00H	; `string'
CONST	ENDS
;	COMDAT ??_C@_0BF@LPNPPMDI@Failed?3?5?$CFs?0?5errno?5?$CFd@
CONST	SEGMENT
??_C@_0BF@LPNPPMDI@Failed?3?5?$CFs?0?5errno?5?$CFd@ DB 'Failed: %s, errno'
	DB	' %d', 00H					; `string'
CONST	ENDS
;	COMDAT ??_C@_06BEBLAAFA@OOM?5?$CFs@
CONST	SEGMENT
??_C@_06BEBLAAFA@OOM?5?$CFs@ DB 'OOM %s', 00H		; `string'
CONST	ENDS
;	COMDAT ??_C@_09MIIPHL@mg_listen@
CONST	SEGMENT
??_C@_09MIIPHL@mg_listen@ DB 'mg_listen', 00H		; `string'
CONST	ENDS
;	COMDAT ??_C@_04MNPDLBCA@udp?3@
CONST	SEGMENT
??_C@_04MNPDLBCA@udp?3@ DB 'udp:', 00H			; `string'
CONST	ENDS
;	COMDAT ??_C@_03CDNNJDDN@OOM@
CONST	SEGMENT
??_C@_03CDNNJDDN@OOM@ DB 'OOM', 00H			; `string'
CONST	ENDS
;	COMDAT ??_C@_08FJNKCABM@null?5url@
CONST	SEGMENT
??_C@_08FJNKCABM@null?5url@ DB 'null url', 00H		; `string'
CONST	ENDS
;	COMDAT ??_C@_0L@KLLEPGGK@mg_connect@
CONST	SEGMENT
??_C@_0L@KLLEPGGK@mg_connect@ DB 'mg_connect', 00H	; `string'
CONST	ENDS
;	COMDAT ??_C@_0P@KGEINCCM@?$CFlu?5?$CFld?5closed@
CONST	SEGMENT
??_C@_0P@KGEINCCM@?$CFlu?5?$CFld?5closed@ DB '%lu %ld closed', 00H ; `string'
CONST	ENDS
;	COMDAT ??_C@_0O@KLFCDPFL@mg_close_conn@
CONST	SEGMENT
??_C@_0O@KLFCDPFL@mg_close_conn@ DB 'mg_close_conn', 00H ; `string'
CONST	ENDS
;	COMDAT ??_C@_09IPAEKDAI@localhost@
CONST	SEGMENT
??_C@_09IPAEKDAI@localhost@ DB 'localhost', 00H		; `string'
CONST	ENDS
;	COMDAT ??_C@_0BO@FOKBBNGE@?$CFlu?5MQTT?5auth?5failed?0?5code?5?$CFd@
CONST	SEGMENT
??_C@_0BO@FOKBBNGE@?$CFlu?5MQTT?5auth?5failed?0?5code?5?$CFd@ DB '%lu MQT'
	DB	'T auth failed, code %d', 00H		; `string'
CONST	ENDS
;	COMDAT ??_C@_0O@MHLPOCL@?$CFlu?5Connected@
CONST	SEGMENT
??_C@_0O@MHLPOCL@?$CFlu?5Connected@ DB '%lu Connected', 00H ; `string'
CONST	ENDS
;	COMDAT ??_C@_0BO@KABHPGHA@?$CFlu?5MQTT?5CMD?5?$CFd?5len?5?$CFd?5?$FL?$CF?4?$CKs?$FN@
CONST	SEGMENT
??_C@_0BO@KABHPGHA@?$CFlu?5MQTT?5CMD?5?$CFd?5len?5?$CFd?5?$FL?$CF?4?$CKs?$FN@ DB '%'
	DB	'lu MQTT CMD %d len %d [%.*s]', 00H		; `string'
CONST	ENDS
;	COMDAT ??_C@_0BL@MPELNGON@?$CFlu?5MQTT?5malformed?5message@
CONST	SEGMENT
??_C@_0BL@MPELNGON@?$CFlu?5MQTT?5malformed?5message@ DB '%lu MQTT malform'
	DB	'ed message', 00H				; `string'
CONST	ENDS
;	COMDAT ??_C@_07IJPJCEBD@mqtt_cb@
CONST	SEGMENT
??_C@_07IJPJCEBD@mqtt_cb@ DB 'mqtt_cb', 00H		; `string'
CONST	ENDS
;	COMDAT ??_C@_0BF@LDABDMHN@?$CFlu?5?$FL?$CF?4?$CKs?$FN?5?9?$DO?5?$FL?$CF?4?$CKs?$FN@
CONST	SEGMENT
??_C@_0BF@LDABDMHN@?$CFlu?5?$FL?$CF?4?$CKs?$FN?5?9?$DO?5?$FL?$CF?4?$CKs?$FN@ DB '%'
	DB	'lu [%.*s] -> [%.*s]', 00H			; `string'
CONST	ENDS
;	COMDAT ??_C@_0M@JCOIBNAC@mg_mqtt_pub@
CONST	SEGMENT
??_C@_0M@JCOIBNAC@mg_mqtt_pub@ DB 'mg_mqtt_pub', 00H	; `string'
CONST	ENDS
;	COMDAT ??_C@_02JDJKNLJP@?$AA?$PP@
CONST	SEGMENT
??_C@_02JDJKNLJP@?$AA?$PP@ DB 00H, 0ffH, 00H		; `string'
CONST	ENDS
;	COMDAT ??_C@_03NDEAONJP@?5?5?5@
CONST	SEGMENT
??_C@_03NDEAONJP@?5?5?5@ DB '   ', 00H			; `string'
CONST	ENDS
;	COMDAT ??_C@_02KNHHEEKP@?5?5@
CONST	SEGMENT
??_C@_02KNHHEEKP@?5?5@ DB '  ', 00H			; `string'
CONST	ENDS
;	COMDAT ??_C@_0BD@KJILOAFG@?$CF?96llx?5?$CFd?5?$CFs?3?$CFd?3?$CFs@
CONST	SEGMENT
??_C@_0BD@KJILOAFG@?$CF?96llx?5?$CFd?5?$CFs?3?$CFd?3?$CFs@ DB '%-6llx %d '
	DB	'%s:%d:%s', 00H				; `string'
CONST	ENDS
;	COMDAT ??_C@_04MLLLIHIP@null@
CONST	SEGMENT
??_C@_04MLLLIHIP@null@ DB 'null', 00H			; `string'
CONST	ENDS
;	COMDAT ??_C@_01EPMOAMKG@$@
CONST	SEGMENT
??_C@_01EPMOAMKG@$@ DB '$', 00H				; `string'
CONST	ENDS
;	COMDAT ??_C@_07HHNAIFDF@bfnrt?2?$CC@
CONST	SEGMENT
??_C@_07HHNAIFDF@bfnrt?2?$CC@ DB 'bfnrt\"', 00H		; `string'
CONST	ENDS
;	COMDAT ??_C@_07GIIPGIPO@?$AI?$AM?6?$AN?7?2?$CC@
CONST	SEGMENT
??_C@_07GIIPGIPO@?$AI?$AM?6?$AN?7?2?$CC@ DB 08H, 0cH, 0aH, 0dH, 09H, '\"', 00H ; `string'
CONST	ENDS
;	COMDAT ??_C@_0L@OOAJBPCA@?$CFlld?9?$DO?$CFlld@
CONST	SEGMENT
??_C@_0L@OOAJBPCA@?$CFlld?9?$DO?$CFlld@ DB '%lld->%lld', 00H ; `string'
CONST	ENDS
;	COMDAT ??_C@_0BA@HJJGBKFB@mg_iobuf_resize@
CONST	SEGMENT
??_C@_0BA@HJJGBKFB@mg_iobuf_resize@ DB 'mg_iobuf_resize', 00H ; `string'
CONST	ENDS
;	COMDAT ??_C@_03JNMAOHCK@hi?6@
CONST	SEGMENT
??_C@_03JNMAOHCK@hi?6@ DB 'hi', 0aH, 00H		; `string'
CONST	ENDS
;	COMDAT ??_C@_0BH@JNCLOPOB@Debug?5level?5set?5to?5?$CFd?6@
CONST	SEGMENT
??_C@_0BH@JNCLOPOB@Debug?5level?5set?5to?5?$CFd?6@ DB 'Debug level set to'
	DB	' %d', 0aH, 00H				; `string'
CONST	ENDS
;	COMDAT ??_C@_07JPIHOLMH@$?4level@
CONST	SEGMENT
??_C@_07JPIHOLMH@$?4level@ DB '$.level', 00H		; `string'
CONST	ENDS
;	COMDAT ??_C@_06HAHILENG@?1debug@
CONST	SEGMENT
??_C@_06HAHILENG@?1debug@ DB '/debug', 00H		; `string'
CONST	ENDS
;	COMDAT ??_C@_03DJDALPN@ok?6@
CONST	SEGMENT
??_C@_03DJDALPN@ok?6@ DB 'ok', 0aH, 00H			; `string'
CONST	ENDS
;	COMDAT ??_C@_05CMMBDMDD@?1quit@
CONST	SEGMENT
??_C@_05CMMBDMDD@?1quit@ DB '/quit', 00H		; `string'
CONST	ENDS
;	COMDAT ??_C@_0O@HABHDEMH@Invalid?5chunk@
CONST	SEGMENT
??_C@_0O@HABHDEMH@Invalid?5chunk@ DB 'Invalid chunk', 00H ; `string'
CONST	ENDS
;	COMDAT ??_C@_0BK@LOOLINP@Invalid?5Transfer?9Encoding@
CONST	SEGMENT
??_C@_0BK@LOOLINP@Invalid?5Transfer?9Encoding@ DB 'Invalid Transfer-Encod'
	DB	'ing', 00H					; `string'
CONST	ENDS
;	COMDAT ??_C@_07KCKHAHHI@chunked@
CONST	SEGMENT
??_C@_07KCKHAHHI@chunked@ DB 'chunked', 00H		; `string'
CONST	ENDS
;	COMDAT ??_C@_0BC@ELHLFCNH@Transfer?9Encoding@
CONST	SEGMENT
??_C@_0BC@ELHLFCNH@Transfer?9Encoding@ DB 'Transfer-Encoding', 00H ; `string'
CONST	ENDS
;	COMDAT ??_C@_0BG@HFEJOELF@HTTP?5parse?0?5?$CFlu?5bytes@
CONST	SEGMENT
??_C@_0BG@HFEJOELF@HTTP?5parse?0?5?$CFlu?5bytes@ DB 'HTTP parse, %lu byte'
	DB	's', 00H					; `string'
CONST	ENDS
;	COMDAT ??_C@_0N@BCMHMOCL@open?$CI?$CFs?$CJ?3?5?$CFd@
CONST	SEGMENT
??_C@_0N@BCMHMOCL@open?$CI?$CFs?$CJ?3?5?$CFd@ DB 'open(%s): %d', 00H ; `string'
CONST	ENDS
;	COMDAT ??_C@_0BJ@IDGNCELE@?$CFs?3?5over?5max?5size?5of?5?$CFlu@
CONST	SEGMENT
??_C@_0BJ@IDGNCELE@?$CFs?3?5over?5max?5size?5of?5?$CFlu@ DB '%s: over max'
	DB	' size of %lu', 00H				; `string'
CONST	ENDS
;	COMDAT ??_C@_0BE@OMMGLANF@?$CFs?3?5offset?5mismatch@
CONST	SEGMENT
??_C@_0BE@OMMGLANF@?$CFs?3?5offset?5mismatch@ DB '%s: offset mismatch', 00H ; `string'
CONST	ENDS
;	COMDAT ??_C@_0BA@ELGKPKEI@offset?5required@
CONST	SEGMENT
??_C@_0BA@ELGKPKEI@offset?5required@ DB 'offset required', 00H ; `string'
CONST	ENDS
;	COMDAT ??_C@_0BF@OCKNFKIO@?$CFs?5?9?$DO?5?$CFd?5bytes?5?$EA?5?$CFld@
CONST	SEGMENT
??_C@_0BF@OCKNFKIO@?$CFs?5?9?$DO?5?$CFd?5bytes?5?$EA?5?$CFld@ DB '%s -> %'
	DB	'd bytes @ %ld', 00H				; `string'
CONST	ENDS
;	COMDAT ??_C@_0P@HACFLAGA@mg_http_upload@
CONST	SEGMENT
??_C@_0P@HACFLAGA@mg_http_upload@ DB 'mg_http_upload', 00H ; `string'
CONST	ENDS
;	COMDAT ??_C@_03JALODAI@?$CFld@
CONST	SEGMENT
??_C@_03JALODAI@?$CFld@ DB '%ld', 00H			; `string'
CONST	ENDS
;	COMDAT ??_C@_06KLHHMIGM@offset@
CONST	SEGMENT
??_C@_06KLHHMIGM@offset@ DB 'offset', 00H		; `string'
CONST	ENDS
;	COMDAT ??_C@_0N@GOCCFLMF@access_token@
CONST	SEGMENT
??_C@_0N@GOCCFLMF@access_token@ DB 'access_token', 00H	; `string'
CONST	ENDS
;	COMDAT ??_C@_06EGBLANDJ@Cookie@
CONST	SEGMENT
??_C@_06EGBLANDJ@Cookie@ DB 'Cookie', 00H		; `string'
CONST	ENDS
;	COMDAT ??_C@_07KGFIHGLJ@Bearer?5@
CONST	SEGMENT
??_C@_07KGFIHGLJ@Bearer?5@ DB 'Bearer ', 00H		; `string'
CONST	ENDS
;	COMDAT ??_C@_06FFOGOLGD@Basic?5@
CONST	SEGMENT
??_C@_06FFOGOLGD@Basic?5@ DB 'Basic ', 00H		; `string'
CONST	ENDS
;	COMDAT ??_C@_0O@NAFGPKMI@Authorization@
CONST	SEGMENT
??_C@_0O@NAFGPKMI@Authorization@ DB 'Authorization', 00H ; `string'
CONST	ENDS
;	COMDAT ??_C@_0P@KMKBALOG@?1index?4html?4gz@
CONST	SEGMENT
??_C@_0P@KMKBALOG@?1index?4html?4gz@ DB '/index.html.gz', 00H ; `string'
CONST	ENDS
;	COMDAT ??_C@_0N@LEPNGMOP@?1index?4shtml@
CONST	SEGMENT
??_C@_0N@LEPNGMOP@?1index?4shtml@ DB '/index.shtml', 00H ; `string'
CONST	ENDS
;	COMDAT ??_C@_0M@LFMFBCIF@?1index?4html@
CONST	SEGMENT
??_C@_0M@LFMFBCIF@?1index?4html@ DB '/index.html', 00H	; `string'
CONST	ENDS
;	COMDAT ??_C@_0DL@NDIFMFHG@HTTP?11?41?5301?5Moved?$AN?6Location?3?5?$CF@
CONST	SEGMENT
??_C@_0DL@NDIFMFHG@HTTP?11?41?5301?5Moved?$AN?6Location?3?5?$CF@ DB 'HTTP'
	DB	'/1.1 301 Moved', 0dH, 0aH, 'Location: %.*s/', 0dH, 0aH, 'Cont'
	DB	'ent-Length: 0', 0dH, 0aH, 0dH, 0aH, 00H	; `string'
CONST	ENDS
;	COMDAT ??_C@_0BC@GKOJEFML@?$CFlu?5?$CF?4?$CKs?5?9?$DO?5?$CFs?5?$CFd@
CONST	SEGMENT
??_C@_0BC@GKOJEFML@?$CFlu?5?$CF?4?$CKs?5?9?$DO?5?$CFs?5?$CFd@ DB '%lu %.*'
	DB	's -> %s %d', 00H				; `string'
CONST	ENDS
;	COMDAT ??_C@_0N@GNCHAPHH@uri_to_path2@
CONST	SEGMENT
??_C@_0N@GNCHAPHH@uri_to_path2@ DB 'uri_to_path2', 00H	; `string'
CONST	ENDS
;	COMDAT ??_C@_0N@KKHAJPLM@Invalid?5path@
CONST	SEGMENT
??_C@_0N@KKHAJPLM@Invalid?5path@ DB 'Invalid path', 00H	; `string'
CONST	ENDS
;	COMDAT ??_C@_0BD@CCPJKDLJ@Exceeded?5path?5size@
CONST	SEGMENT
??_C@_0BD@CCPJKDLJ@Exceeded?5path?5size@ DB 'Exceeded path size', 00H ; `string'
CONST	ENDS
;	COMDAT ??_C@_0HB@HMGLNPND@?$DM?1tbody?$DO?$DMtfoot?$DO?$DMtr?$DO?$DMtd?5colspan?$DN@
CONST	SEGMENT
??_C@_0HB@HMGLNPND@?$DM?1tbody?$DO?$DMtfoot?$DO?$DMtr?$DO?$DMtd?5colspan?$DN@ DB '<'
	DB	'/tbody><tfoot><tr><td colspan="3"><hr></td></tr></tfoot></tab'
	DB	'le><address>Mongoose v.%s</address></body></html>', 0aH, 00H ; `string'
CONST	ENDS
;	COMDAT ??_C@_04KCOIGPKP@7?412@
CONST	SEGMENT
??_C@_04KCOIGPKP@7?412@ DB '7.12', 00H			; `string'
CONST	ENDS
;	COMDAT ??_C@_0FA@IECPBOOL@?5?5?$DMtr?$DO?$DMtd?$DO?$DMa?5href?$DN?$CC?4?4?$CC?$DO?4?4?$DM?1a?$DO?$DM?1@
CONST	SEGMENT
??_C@_0FA@IECPBOOL@?5?5?$DMtr?$DO?$DMtd?$DO?$DMa?5href?$DN?$CC?4?4?$CC?$DO?4?4?$DM?1a?$DO?$DM?1@ DB ' '
	DB	' <tr><td><a href="..">..</a></td><td name=-1></td><td name=-1'
	DB	'>[DIR]</td></tr>', 0aH, 00H			; `string'
CONST	ENDS
;	COMDAT ??_C@_0BII@BEKFAOHG@?$DM?$CBDOCTYPE?5html?$DO?$DMhtml?$DO?$DMhead?$DO?$DMtit@
CONST	SEGMENT
??_C@_0BII@BEKFAOHG@?$DM?$CBDOCTYPE?5html?$DO?$DMhtml?$DO?$DMhead?$DO?$DMtit@ DB '<'
	DB	'!DOCTYPE html><html><head><title>Index of %.*s</title>%s%s<st'
	DB	'yle>th,td {text-align: left; padding-right: 1em; font-family:'
	DB	' monospace; }</style></head><body><h1>Index of %.*s</h1><tabl'
	DB	'e cellpadding="0"><thead><tr><th><a href="#" rel="0">Name</a>'
	DB	'</th><th><a href="#" rel="1">Modified</a></th><th><a href="#"'
	DB	' rel="2">Size</a></th></tr><tr><td colspan="3"><hr></td></tr>'
	DB	'</thead><tbody id="tb">', 0aH, 00H		; `string'
CONST	ENDS
;	COMDAT ??_C@_0FI@EOBPCODB@HTTP?11?41?5200?5OK?$AN?6Content?9Type?3?5@
CONST	SEGMENT
??_C@_0FI@EOBPCODB@HTTP?11?41?5200?5OK?$AN?6Content?9Type?3?5@ DB 'HTTP/1'
	DB	'.1 200 OK', 0dH, 0aH, 'Content-Type: text/html; charset=utf-8'
	DB	0dH, 0aH, '%sContent-Length:         ', 0dH, 0aH, 0dH, 0aH, 00H ; `string'
CONST	ENDS
;	COMDAT ??_C@_0BME@DCNGJJJ@for?5?$CIvar?5i?5?$DN?50?$DL?5i?5?$DM?5tr?4length?$DL?5@
CONST	SEGMENT
??_C@_0BME@DCNGJJJ@for?5?$CIvar?5i?5?$DN?50?$DL?5i?5?$DM?5tr?4length?$DL?5@ DB 'f'
	DB	'or (var i = 0; i < tr.length; i++) tb.appendChild(tr[i]); if '
	DB	'(!d) window.location.hash = (''sc='' + sc + ''&so='' + so); }'
	DB	';window.onload = function() {var tb = document.getElementById'
	DB	'(''tb'');var m = /sc=([012]).so=(1|-1)/.exec(window.location.'
	DB	'hash) || [0, 2, 1];var sc = m[1], so = m[2]; document.onclick'
	DB	' = function(ev) { var c = ev.target.rel; if (c) {if (c == sc)'
	DB	' so *= -1; srt(tb, c, so); sc = c; ev.preventDefault();}};srt'
	DB	'(tb, sc, so, true);}</script>', 00H		; `string'
CONST	ENDS
;	COMDAT ??_C@_0BMF@KFFEPKPH@?$DMscript?$DOfunction?5srt?$CItb?0?5sc?0?5so@
CONST	SEGMENT
??_C@_0BMF@KFFEPKPH@?$DMscript?$DOfunction?5srt?$CItb?0?5sc?0?5so@ DB '<s'
	DB	'cript>function srt(tb, sc, so, d) {var tr = Array.prototype.s'
	DB	'lice.call(tb.rows, 0),tr = tr.sort(function (a, b) { var c1 ='
	DB	' a.cells[sc], c2 = b.cells[sc],n1 = c1.getAttribute(''name'')'
	DB	', n2 = c2.getAttribute(''name''), t1 = a.cells[2].getAttribut'
	DB	'e(''name''), t2 = b.cells[2].getAttribute(''name''); return s'
	DB	'o * (t1 < 0 && t2 >= 0 ? -1 : t2 < 0 && t1 >= 0 ? 1 : n1 ? pa'
	DB	'rseInt(n2) - parseInt(n1) : c1.textContent.trim().localeCompa'
	DB	're(c2.textContent.trim())); });', 00H	; `string'
CONST	ENDS
;	COMDAT ??_C@_0FI@IPGJIOJD@?5?5?$DMtr?$DO?$DMtd?$DO?$DMa?5href?$DN?$CC?$CF?4?$CKs?$CFs?$CC?$DO?$CFs?$CFs@
CONST	SEGMENT
??_C@_0FI@IPGJIOJD@?5?5?$DMtr?$DO?$DMtd?$DO?$DMa?5href?$DN?$CC?$CF?4?$CKs?$CFs?$CC?$DO?$CFs?$CFs@ DB ' '
	DB	' <tr><td><a href="%.*s%s">%s%s</a></td><td name=%lu>%s</td><t'
	DB	'd name=%lld>%s</td></tr>', 0aH, 00H		; `string'
CONST	ENDS
;	COMDAT ??_C@_03FKNCMABI@?$CFlu@
CONST	SEGMENT
??_C@_03FKNCMABI@?$CFlu@ DB '%lu', 00H			; `string'
CONST	ENDS
;	COMDAT ??_C@_04BFAHMMK@?$CFlld@
CONST	SEGMENT
??_C@_04BFAHMMK@?$CFlld@ DB '%lld', 00H			; `string'
CONST	ENDS
;	COMDAT ??_C@_05DDGJGJB@?$FLDIR?$FN@
CONST	SEGMENT
??_C@_05DDGJGJB@?$FLDIR?$FN@ DB '[DIR]', 00H		; `string'
CONST	ENDS
;	COMDAT ??_C@_01KMDKNFGN@?1@
CONST	SEGMENT
??_C@_01KMDKNFGN@?1@ DB '/', 00H			; `string'
CONST	ENDS
;	COMDAT ??_C@_0BB@MFGDKDCP@?$CFlu?5stat?$CI?$CFs?$CJ?3?5?$CFd@
CONST	SEGMENT
??_C@_0BB@MFGDKDCP@?$CFlu?5stat?$CI?$CFs?$CJ?3?5?$CFd@ DB '%lu stat(%s): '
	DB	'%d', 00H					; `string'
CONST	ENDS
;	COMDAT ??_C@_0N@BELOEIBP@?$CFs?5truncated@
CONST	SEGMENT
??_C@_0N@BELOEIBP@?$CFs?5truncated@ DB '%s truncated', 00H ; `string'
CONST	ENDS
;	COMDAT ??_C@_0O@NAEKIGEC@printdirentry@
CONST	SEGMENT
??_C@_0O@NAEKIGEC@printdirentry@ DB 'printdirentry', 00H ; `string'
CONST	ENDS
;	COMDAT ??_C@_06GIIGBPHC@?$CFs?$CFc?$CFs@
CONST	SEGMENT
??_C@_06GIIGBPHC@?$CFs?$CFc?$CFs@ DB '%s%c%s', 00H	; `string'
CONST	ENDS
;	COMDAT ??_C@_04BINJNOJD@HEAD@
CONST	SEGMENT
??_C@_04BINJNOJD@HEAD@ DB 'HEAD', 00H			; `string'
CONST	ENDS
;	COMDAT ??_C@_0EN@DLMBNGCO@HTTP?11?41?5?$CFd?5?$CFs?$AN?6Content?9Type?3?5?$CF@
CONST	SEGMENT
??_C@_0EN@DLMBNGCO@HTTP?11?41?5?$CFd?5?$CFs?$AN?6Content?9Type?3?5?$CF@ DB 'H'
	DB	'TTP/1.1 %d %s', 0dH, 0aH, 'Content-Type: %.*s', 0dH, 0aH, 'Et'
	DB	'ag: %s', 0dH, 0aH, 'Content-Length: %llu', 0dH, 0aH, '%s%s%s', 0dH
	DB	0aH, 00H					; `string'
CONST	ENDS
;	COMDAT ??_C@_0BJ@MBGLAIMM@Content?9Encoding?3?5gzip?$AN?6@
CONST	SEGMENT
??_C@_0BJ@MBGLAIMM@Content?9Encoding?3?5gzip?$AN?6@ DB 'Content-Encoding:'
	DB	' gzip', 0dH, 0aH, 00H			; `string'
CONST	ENDS
;	COMDAT ??_C@_0CG@JKKKPNMP@Content?9Range?3?5bytes?5?$CFllu?9?$CFllu?1@
CONST	SEGMENT
??_C@_0CG@JKKKPNMP@Content?9Range?3?5bytes?5?$CFllu?9?$CFllu?1@ DB 'Conte'
	DB	'nt-Range: bytes %llu-%llu/%llu', 0dH, 0aH, 00H ; `string'
CONST	ENDS
;	COMDAT ??_C@_0BO@IKDCAKCB@Content?9Range?3?5bytes?5?$CK?1?$CFlld?$AN?6@
CONST	SEGMENT
??_C@_0BO@IKDCAKCB@Content?9Range?3?5bytes?5?$CK?1?$CFlld?$AN?6@ DB 'Cont'
	DB	'ent-Range: bytes */%lld', 0dH, 0aH, 00H	; `string'
CONST	ENDS
;	COMDAT ??_C@_05CFMCGLCK@Range@
CONST	SEGMENT
??_C@_05CFMCGLCK@Range@ DB 'Range', 00H			; `string'
CONST	ENDS
;	COMDAT ??_C@_0O@PLENHEOP@If?9None?9Match@
CONST	SEGMENT
??_C@_0O@PLENHEOP@If?9None?9Match@ DB 'If-None-Match', 00H ; `string'
CONST	ENDS
;	COMDAT ??_C@_0L@CKKNHDCB@Not?5found?6@
CONST	SEGMENT
??_C@_0L@CKKNHDCB@Not?5found?6@ DB 'Not found', 0aH, 00H ; `string'
CONST	ENDS
;	COMDAT ??_C@_05HPILMEBC@?$CFs?4gz@
CONST	SEGMENT
??_C@_05HPILMEBC@?$CFs?4gz@ DB '%s.gz', 00H		; `string'
CONST	ENDS
;	COMDAT ??_C@_04HOHEGKBO@gzip@
CONST	SEGMENT
??_C@_04HOHEGKBO@gzip@ DB 'gzip', 00H			; `string'
CONST	ENDS
;	COMDAT ??_C@_0BA@KDJCHKHJ@Accept?9Encoding@
CONST	SEGMENT
??_C@_0BA@KDJCHKHJ@Accept?9Encoding@ DB 'Accept-Encoding', 00H ; `string'
CONST	ENDS
;	COMDAT ??_C@_06GOGCPOMN@bytes?$DN@
CONST	SEGMENT
??_C@_06GOGCPOMN@bytes?$DN@ DB 'bytes=', 00H		; `string'
CONST	ENDS
;	COMDAT ??_C@_0L@IGCDBAML@video?13gpp@
CONST	SEGMENT
??_C@_0L@IGCDBAML@video?13gpp@ DB 'video/3gpp', 00H	; `string'
CONST	ENDS
;	COMDAT ??_C@_03FOICNDPP@3gp@
CONST	SEGMENT
??_C@_03FOICNDPP@3gp@ DB '3gp', 00H			; `string'
CONST	ENDS
;	COMDAT ??_C@_0BA@LMDOGBAF@application?1zip@
CONST	SEGMENT
??_C@_0BA@LMDOGBAF@application?1zip@ DB 'application/zip', 00H ; `string'
CONST	ENDS
;	COMDAT ??_C@_03LCAAOJEC@zip@
CONST	SEGMENT
??_C@_03LCAAOJEC@zip@ DB 'zip', 00H			; `string'
CONST	ENDS
;	COMDAT ??_C@_0L@GNMNMNM@image?1webp@
CONST	SEGMENT
??_C@_0L@GNMNMNM@image?1webp@ DB 'image/webp', 00H	; `string'
CONST	ENDS
;	COMDAT ??_C@_04BKLLFFLE@webp@
CONST	SEGMENT
??_C@_04BKLLFFLE@webp@ DB 'webp', 00H			; `string'
CONST	ENDS
;	COMDAT ??_C@_09KOEADLDC@audio?1wav@
CONST	SEGMENT
??_C@_09KOEADLDC@audio?1wav@ DB 'audio/wav', 00H	; `string'
CONST	ENDS
;	COMDAT ??_C@_03BICDMHKB@wav@
CONST	SEGMENT
??_C@_03BICDMHKB@wav@ DB 'wav', 00H			; `string'
CONST	ENDS
;	COMDAT ??_C@_0BD@LHPABEHA@application?1tar?9gz@
CONST	SEGMENT
??_C@_0BD@LHPABEHA@application?1tar?9gz@ DB 'application/tar-gz', 00H ; `string'
CONST	ENDS
;	COMDAT ??_C@_03KCKOFLPB@tgz@
CONST	SEGMENT
??_C@_03KCKOFLPB@tgz@ DB 'tgz', 00H			; `string'
CONST	ENDS
;	COMDAT ??_C@_05HNDFGKM@shtml@
CONST	SEGMENT
??_C@_05HNDFGKM@shtml@ DB 'shtml', 00H			; `string'
CONST	ENDS
;	COMDAT ??_C@_0BA@MHMDKHOF@application?1pdf@
CONST	SEGMENT
??_C@_0BA@MHMDKHOF@application?1pdf@ DB 'application/pdf', 00H ; `string'
CONST	ENDS
;	COMDAT ??_C@_03MJPNCPKC@pdf@
CONST	SEGMENT
??_C@_03MJPNCPKC@pdf@ DB 'pdf', 00H			; `string'
CONST	ENDS
;	COMDAT ??_C@_0L@NDKAOLEK@video?1mpeg@
CONST	SEGMENT
??_C@_0L@NDKAOLEK@video?1mpeg@ DB 'video/mpeg', 00H	; `string'
CONST	ENDS
;	COMDAT ??_C@_04FHOAOPCJ@mpeg@
CONST	SEGMENT
??_C@_04FHOAOPCJ@mpeg@ DB 'mpeg', 00H			; `string'
CONST	ENDS
;	COMDAT ??_C@_09GGJCJIJ@video?1mp4@
CONST	SEGMENT
??_C@_09GGJCJIJ@video?1mp4@ DB 'video/mp4', 00H		; `string'
CONST	ENDS
;	COMDAT ??_C@_03PICMJEJK@mp4@
CONST	SEGMENT
??_C@_03PICMJEJK@mp4@ DB 'mp4', 00H			; `string'
CONST	ENDS
;	COMDAT ??_C@_0L@DOFAEOCL@audio?1mpeg@
CONST	SEGMENT
??_C@_0L@DOFAEOCL@audio?1mpeg@ DB 'audio/mpeg', 00H	; `string'
CONST	ENDS
;	COMDAT ??_C@_03LHGNACFN@mp3@
CONST	SEGMENT
??_C@_03LHGNACFN@mp3@ DB 'mp3', 00H			; `string'
CONST	ENDS
;	COMDAT ??_C@_0BA@MEHPJOJG@video?1quicktime@
CONST	SEGMENT
??_C@_0BA@MEHPJOJG@video?1quicktime@ DB 'video/quicktime', 00H ; `string'
CONST	ENDS
;	COMDAT ??_C@_03CNBJFNFA@mov@
CONST	SEGMENT
??_C@_03CNBJFNFA@mov@ DB 'mov', 00H			; `string'
CONST	ENDS
;	COMDAT ??_C@_0BB@MDJGEIPD@application?1json@
CONST	SEGMENT
??_C@_0BB@MDJGEIPD@application?1json@ DB 'application/json', 00H ; `string'
CONST	ENDS
;	COMDAT ??_C@_04CLCAKCEI@json@
CONST	SEGMENT
??_C@_04CLCAKCEI@json@ DB 'json', 00H			; `string'
CONST	ENDS
;	COMDAT ??_C@_0N@DKCCOJIM@image?1x?9icon@
CONST	SEGMENT
??_C@_0N@DKCCOJIM@image?1x?9icon@ DB 'image/x-icon', 00H ; `string'
CONST	ENDS
;	COMDAT ??_C@_03DAGBJKHL@ico@
CONST	SEGMENT
??_C@_03DAGBJKHL@ico@ DB 'ico', 00H			; `string'
CONST	ENDS
;	COMDAT ??_C@_0BB@JGMCIAKF@application?1gzip@
CONST	SEGMENT
??_C@_0BB@JGMCIAKF@application?1gzip@ DB 'application/gzip', 00H ; `string'
CONST	ENDS
;	COMDAT ??_C@_02JIPGGKDE@gz@
CONST	SEGMENT
??_C@_02JIPGGKDE@gz@ DB 'gz', 00H			; `string'
CONST	ENDS
;	COMDAT ??_C@_0BJ@JDCJMJCJ@application?1octet?9stream@
CONST	SEGMENT
??_C@_0BJ@JDCJMJCJ@application?1octet?9stream@ DB 'application/octet-stre'
	DB	'am', 00H					; `string'
CONST	ENDS
;	COMDAT ??_C@_03JACLIBNI@exe@
CONST	SEGMENT
??_C@_03JACLIBNI@exe@ DB 'exe', 00H			; `string'
CONST	ENDS
;	COMDAT ??_C@_0BD@DMPJCPHP@application?1msword@
CONST	SEGMENT
??_C@_0BD@DMPJCPHP@application?1msword@ DB 'application/msword', 00H ; `string'
CONST	ENDS
;	COMDAT ??_C@_03GHKEPEMO@doc@
CONST	SEGMENT
??_C@_03GHKEPEMO@doc@ DB 'doc', 00H			; `string'
CONST	ENDS
;	COMDAT ??_C@_08CGFGOOIN@text?1csv@
CONST	SEGMENT
??_C@_08CGFGOOIN@text?1csv@ DB 'text/csv', 00H		; `string'
CONST	ENDS
;	COMDAT ??_C@_03NIPKHAHH@csv@
CONST	SEGMENT
??_C@_03NIPKHAHH@csv@ DB 'csv', 00H			; `string'
CONST	ENDS
;	COMDAT ??_C@_0BA@DDNKOHJP@video?1x?9msvideo@
CONST	SEGMENT
??_C@_0BA@DDNKOHJP@video?1x?9msvideo@ DB 'video/x-msvideo', 00H ; `string'
CONST	ENDS
;	COMDAT ??_C@_03LJGCHEIJ@avi@
CONST	SEGMENT
??_C@_03LJGCHEIJ@avi@ DB 'avi', 00H			; `string'
CONST	ENDS
;	COMDAT ??_C@_0BK@LKDCPLNF@text?1plain?$DL?5charset?$DNutf?98@
CONST	SEGMENT
??_C@_0BK@LKDCPLNF@text?1plain?$DL?5charset?$DNutf?98@ DB 'text/plain; ch'
	DB	'arset=utf-8', 00H				; `string'
CONST	ENDS
;	COMDAT ??_C@_03CLFHJCDC@txt@
CONST	SEGMENT
??_C@_03CLFHJCDC@txt@ DB 'txt', 00H			; `string'
CONST	ENDS
;	COMDAT ??_C@_0O@MMMFMLNF@image?1svg?$CLxml@
CONST	SEGMENT
??_C@_0O@MMMFMLNF@image?1svg?$CLxml@ DB 'image/svg+xml', 00H ; `string'
CONST	ENDS
;	COMDAT ??_C@_03NNPBMGBD@svg@
CONST	SEGMENT
??_C@_03NNPBMGBD@svg@ DB 'svg', 00H			; `string'
CONST	ENDS
;	COMDAT ??_C@_08LDONFKLE@font?1ttf@
CONST	SEGMENT
??_C@_08LDONFKLE@font?1ttf@ DB 'font/ttf', 00H		; `string'
CONST	ENDS
;	COMDAT ??_C@_03FKLJBLIF@ttf@
CONST	SEGMENT
??_C@_03FKLJBLIF@ttf@ DB 'ttf', 00H			; `string'
CONST	ENDS
;	COMDAT ??_C@_09DPKAPMKA@font?1woff@
CONST	SEGMENT
??_C@_09DPKAPMKA@font?1woff@ DB 'font/woff', 00H	; `string'
CONST	ENDS
;	COMDAT ??_C@_04GOJHKINL@woff@
CONST	SEGMENT
??_C@_04GOJHKINL@woff@ DB 'woff', 00H			; `string'
CONST	ENDS
;	COMDAT ??_C@_04OFMADDDJ@jpeg@
CONST	SEGMENT
??_C@_04OFMADDDJ@jpeg@ DB 'jpeg', 00H			; `string'
CONST	ENDS
;	COMDAT ??_C@_0L@PJKHLKFB@image?1jpeg@
CONST	SEGMENT
??_C@_0L@PJKHLKFB@image?1jpeg@ DB 'image/jpeg', 00H	; `string'
CONST	ENDS
;	COMDAT ??_C@_03PEGNKCLE@jpg@
CONST	SEGMENT
??_C@_03PEGNKCLE@jpg@ DB 'jpg', 00H			; `string'
CONST	ENDS
;	COMDAT ??_C@_09NGJJJBGE@image?1png@
CONST	SEGMENT
??_C@_09NGJJJBGE@image?1png@ DB 'image/png', 00H	; `string'
CONST	ENDS
;	COMDAT ??_C@_03NNHBJLDF@png@
CONST	SEGMENT
??_C@_03NNHBJLDF@png@ DB 'png', 00H			; `string'
CONST	ENDS
;	COMDAT ??_C@_09HADNJIG@image?1gif@
CONST	SEGMENT
??_C@_09HADNJIG@image?1gif@ DB 'image/gif', 00H		; `string'
CONST	ENDS
;	COMDAT ??_C@_03MOLNDNH@gif@
CONST	SEGMENT
??_C@_03MOLNDNH@gif@ DB 'gif', 00H			; `string'
CONST	ENDS
;	COMDAT ??_C@_0BP@IBHNJOOI@text?1javascript?$DL?5charset?$DNutf?98@
CONST	SEGMENT
??_C@_0BP@IBHNJOOI@text?1javascript?$DL?5charset?$DNutf?98@ DB 'text/java'
	DB	'script; charset=utf-8', 00H			; `string'
CONST	ENDS
;	COMDAT ??_C@_02EBOMECCO@js@
CONST	SEGMENT
??_C@_02EBOMECCO@js@ DB 'js', 00H			; `string'
CONST	ENDS
;	COMDAT ??_C@_0BI@MKFMEPPC@text?1css?$DL?5charset?$DNutf?98@
CONST	SEGMENT
??_C@_0BI@MKFMEPPC@text?1css?$DL?5charset?$DNutf?98@ DB 'text/css; charse'
	DB	't=utf-8', 00H				; `string'
CONST	ENDS
;	COMDAT ??_C@_03KFINIEDC@css@
CONST	SEGMENT
??_C@_03KFINIEDC@css@ DB 'css', 00H			; `string'
CONST	ENDS
;	COMDAT ??_C@_03KDICCKGJ@htm@
CONST	SEGMENT
??_C@_03KDICCKGJ@htm@ DB 'htm', 00H			; `string'
CONST	ENDS
;	COMDAT ??_C@_0BJ@CDMHJEKP@text?1html?$DL?5charset?$DNutf?98@
CONST	SEGMENT
??_C@_0BJ@CDMHJEKP@text?1html?$DL?5charset?$DNutf?98@ DB 'text/html; char'
	DB	'set=utf-8', 00H				; `string'
CONST	ENDS
;	COMDAT ??_C@_04PNIFHPHN@html@
CONST	SEGMENT
??_C@_04PNIFHPHN@html@ DB 'html', 00H			; `string'
CONST	ENDS
;	COMDAT ??_C@_0M@KPHLEGAC@?$CC?$CFlld?4?$CFlld?$CC@
CONST	SEGMENT
??_C@_0M@KPHLEGAC@?$CC?$CFlld?4?$CFlld?$CC@ DB '"%lld.%lld"', 00H ; `string'
CONST	ENDS
;	COMDAT ??_C@_06DLMLPGDC@?$CF?910lu@
CONST	SEGMENT
??_C@_06DLMLPGDC@?$CF?910lu@ DB '%-10lu', 00H		; `string'
CONST	ENDS
;	COMDAT ??_C@_0DC@GEFECBIH@HTTP?11?41?5?$CFd?5?$CFs?$AN?6?$CFsContent?9Lengt@
CONST	SEGMENT
??_C@_0DC@GEFECBIH@HTTP?11?41?5?$CFd?5?$CFs?$AN?6?$CFsContent?9Lengt@ DB 'H'
	DB	'TTP/1.1 %d %s', 0dH, 0aH, '%sContent-Length:            ', 0dH
	DB	0aH, 0dH, 0aH, 00H				; `string'
CONST	ENDS
;	COMDAT ??_C@_00CNPNBAHC@@
CONST	SEGMENT
??_C@_00CNPNBAHC@@ DB 00H				; `string'
CONST	ENDS
;	COMDAT ??_C@_0BO@OINGLCPC@Network?5Connect?5Timeout?5Error@
CONST	SEGMENT
??_C@_0BO@OINGLCPC@Network?5Connect?5Timeout?5Error@ DB 'Network Connect '
	DB	'Timeout Error', 00H				; `string'
CONST	ENDS
;	COMDAT ??_C@_0CA@JCJMCNEH@Network?5Authentication?5Required@
CONST	SEGMENT
??_C@_0CA@JCJMCNEH@Network?5Authentication?5Required@ DB 'Network Authent'
	DB	'ication Required', 00H			; `string'
CONST	ENDS
;	COMDAT ??_C@_0N@JKOFFNBC@Not?5Extended@
CONST	SEGMENT
??_C@_0N@JKOFFNBC@Not?5Extended@ DB 'Not Extended', 00H	; `string'
CONST	ENDS
;	COMDAT ??_C@_0O@KJBLEGOO@Loop?5Detected@
CONST	SEGMENT
??_C@_0O@KJBLEGOO@Loop?5Detected@ DB 'Loop Detected', 00H ; `string'
CONST	ENDS
;	COMDAT ??_C@_0BF@GDOFGFPB@Insufficient?5Storage@
CONST	SEGMENT
??_C@_0BF@GDOFGFPB@Insufficient?5Storage@ DB 'Insufficient Storage', 00H ; `string'
CONST	ENDS
;	COMDAT ??_C@_0BI@PDOLHBJO@Variant?5Also?5Negotiates@
CONST	SEGMENT
??_C@_0BI@PDOLHBJO@Variant?5Also?5Negotiates@ DB 'Variant Also Negotiates'
	DB	00H						; `string'
CONST	ENDS
;	COMDAT ??_C@_0BL@ODCMNOHA@HTTP?5Version?5Not?5Supported@
CONST	SEGMENT
??_C@_0BL@ODCMNOHA@HTTP?5Version?5Not?5Supported@ DB 'HTTP Version Not Su'
	DB	'pported', 00H				; `string'
CONST	ENDS
;	COMDAT ??_C@_0BA@MCOKJNOA@Gateway?5Timeout@
CONST	SEGMENT
??_C@_0BA@MCOKJNOA@Gateway?5Timeout@ DB 'Gateway Timeout', 00H ; `string'
CONST	ENDS
;	COMDAT ??_C@_0BE@NGHLFKBN@Service?5Unavailable@
CONST	SEGMENT
??_C@_0BE@NGHLFKBN@Service?5Unavailable@ DB 'Service Unavailable', 00H ; `string'
CONST	ENDS
;	COMDAT ??_C@_0M@BNCNLPGM@Bad?5Gateway@
CONST	SEGMENT
??_C@_0M@BNCNLPGM@Bad?5Gateway@ DB 'Bad Gateway', 00H	; `string'
CONST	ENDS
;	COMDAT ??_C@_0BA@JGKGKAME@Not?5Implemented@
CONST	SEGMENT
??_C@_0BA@JGKGKAME@Not?5Implemented@ DB 'Not Implemented', 00H ; `string'
CONST	ENDS
;	COMDAT ??_C@_0BG@NJGANGCC@Internal?5Server?5Error@
CONST	SEGMENT
??_C@_0BG@NJGANGCC@Internal?5Server?5Error@ DB 'Internal Server Error', 00H ; `string'
CONST	ENDS
;	COMDAT ??_C@_0BG@NOEDODFP@Client?5Closed?5Request@
CONST	SEGMENT
??_C@_0BG@NOEDODFP@Client?5Closed?5Request@ DB 'Client Closed Request', 00H ; `string'
CONST	ENDS
;	COMDAT ??_C@_0BO@BDFIKLNJ@Unavailable?5For?5Legal?5Reasons@
CONST	SEGMENT
??_C@_0BO@BDFIKLNJ@Unavailable?5For?5Legal?5Reasons@ DB 'Unavailable For '
	DB	'Legal Reasons', 00H				; `string'
CONST	ENDS
;	COMDAT ??_C@_0CD@CBAJJADO@Connection?5Closed?5Without?5Respo@
CONST	SEGMENT
??_C@_0CD@CBAJJADO@Connection?5Closed?5Without?5Respo@ DB 'Connection Clo'
	DB	'sed Without Response', 00H			; `string'
CONST	ENDS
;	COMDAT ??_C@_0CA@IOEEABLM@Request?5Header?5Fields?5Too?5Large@
CONST	SEGMENT
??_C@_0CA@IOEEABLM@Request?5Header?5Fields?5Too?5Large@ DB 'Request Heade'
	DB	'r Fields Too Large', 00H			; `string'
CONST	ENDS
;	COMDAT ??_C@_0BC@JPBLCMB@Too?5Many?5Requests@
CONST	SEGMENT
??_C@_0BC@JPBLCMB@Too?5Many?5Requests@ DB 'Too Many Requests', 00H ; `string'
CONST	ENDS
;	COMDAT ??_C@_0BG@GMCBMLGE@Precondition?5Required@
CONST	SEGMENT
??_C@_0BG@GMCBMLGE@Precondition?5Required@ DB 'Precondition Required', 00H ; `string'
CONST	ENDS
;	COMDAT ??_C@_0BB@NMNIKHMI@Upgrade?5Required@
CONST	SEGMENT
??_C@_0BB@NMNIKHMI@Upgrade?5Required@ DB 'Upgrade Required', 00H ; `string'
CONST	ENDS
;	COMDAT ??_C@_0BC@KKPOPIFM@Failed?5Dependency@
CONST	SEGMENT
??_C@_0BC@KKPOPIFM@Failed?5Dependency@ DB 'Failed Dependency', 00H ; `string'
CONST	ENDS
;	COMDAT ??_C@_06GFKCFIPE@Locked@
CONST	SEGMENT
??_C@_06GFKCFIPE@Locked@ DB 'Locked', 00H		; `string'
CONST	ENDS
;	COMDAT ??_C@_0BF@BHJGKCEF@Unprocessable?5Entity@
CONST	SEGMENT
??_C@_0BF@BHJGKCEF@Unprocessable?5Entity@ DB 'Unprocessable Entity', 00H ; `string'
CONST	ENDS
;	COMDAT ??_C@_0BE@GGAHKOMD@Misdirected?5Request@
CONST	SEGMENT
??_C@_0BE@GGAHKOMD@Misdirected?5Request@ DB 'Misdirected Request', 00H ; `string'
CONST	ENDS
;	COMDAT ??_C@_0N@EHOCJLEI@I?8m?5a?5teapot@
CONST	SEGMENT
??_C@_0N@EHOCJLEI@I?8m?5a?5teapot@ DB 'I''m a teapot', 00H ; `string'
CONST	ENDS
;	COMDAT ??_C@_0BD@NDMHPAED@Expectation?5Failed@
CONST	SEGMENT
??_C@_0BD@NDMHPAED@Expectation?5Failed@ DB 'Expectation Failed', 00H ; `string'
CONST	ENDS
;	COMDAT ??_C@_0CA@CBAMGINK@Requested?5Range?5Not?5Satisfiable@
CONST	SEGMENT
??_C@_0CA@CBAMGINK@Requested?5Range?5Not?5Satisfiable@ DB 'Requested Rang'
	DB	'e Not Satisfiable', 00H			; `string'
CONST	ENDS
;	COMDAT ??_C@_0BH@HLJJIAEN@Unsupported?5Media?5Type@
CONST	SEGMENT
??_C@_0BH@HLJJIAEN@Unsupported?5Media?5Type@ DB 'Unsupported Media Type', 00H ; `string'
CONST	ENDS
;	COMDAT ??_C@_0BF@IHICNLJ@Request?9URI?5Too?5Long@
CONST	SEGMENT
??_C@_0BF@IHICNLJ@Request?9URI?5Too?5Long@ DB 'Request-URI Too Long', 00H ; `string'
CONST	ENDS
;	COMDAT ??_C@_0BC@OEAEGMJF@Payload?5Too?5Large@
CONST	SEGMENT
??_C@_0BC@OEAEGMJF@Payload?5Too?5Large@ DB 'Payload Too Large', 00H ; `string'
CONST	ENDS
;	COMDAT ??_C@_0BE@BBDBJOM@Precondition?5Failed@
CONST	SEGMENT
??_C@_0BE@BBDBJOM@Precondition?5Failed@ DB 'Precondition Failed', 00H ; `string'
CONST	ENDS
;	COMDAT ??_C@_0BA@JCKHPIPI@Length?5Required@
CONST	SEGMENT
??_C@_0BA@JCKHPIPI@Length?5Required@ DB 'Length Required', 00H ; `string'
CONST	ENDS
;	COMDAT ??_C@_04OKIIBCCG@Gone@
CONST	SEGMENT
??_C@_04OKIIBCCG@Gone@ DB 'Gone', 00H			; `string'
CONST	ENDS
;	COMDAT ??_C@_08OJCIFGDF@Conflict@
CONST	SEGMENT
??_C@_08OJCIFGDF@Conflict@ DB 'Conflict', 00H		; `string'
CONST	ENDS
;	COMDAT ??_C@_0BA@HALFGGF@Request?5Timeout@
CONST	SEGMENT
??_C@_0BA@HALFGGF@Request?5Timeout@ DB 'Request Timeout', 00H ; `string'
CONST	ENDS
;	COMDAT ??_C@_0BO@ONPAAOGI@Proxy?5Authentication?5Required@
CONST	SEGMENT
??_C@_0BO@ONPAAOGI@Proxy?5Authentication?5Required@ DB 'Proxy Authenticat'
	DB	'ion Required', 00H				; `string'
CONST	ENDS
;	COMDAT ??_C@_0P@HHIDFAOI@Not?5Acceptable@
CONST	SEGMENT
??_C@_0P@HHIDFAOI@Not?5Acceptable@ DB 'Not Acceptable', 00H ; `string'
CONST	ENDS
;	COMDAT ??_C@_0BD@CCIPIALO@Method?5Not?5Allowed@
CONST	SEGMENT
??_C@_0BD@CCIPIALO@Method?5Not?5Allowed@ DB 'Method Not Allowed', 00H ; `string'
CONST	ENDS
;	COMDAT ??_C@_09CFCBFJND@Not?5Found@
CONST	SEGMENT
??_C@_09CFCBFJND@Not?5Found@ DB 'Not Found', 00H	; `string'
CONST	ENDS
;	COMDAT ??_C@_09LMDIMFJD@Forbidden@
CONST	SEGMENT
??_C@_09LMDIMFJD@Forbidden@ DB 'Forbidden', 00H		; `string'
CONST	ENDS
;	COMDAT ??_C@_0BB@LMPIHCBH@Payment?5Required@
CONST	SEGMENT
??_C@_0BB@LMPIHCBH@Payment?5Required@ DB 'Payment Required', 00H ; `string'
CONST	ENDS
;	COMDAT ??_C@_0N@OOAPMOJA@Unauthorized@
CONST	SEGMENT
??_C@_0N@OOAPMOJA@Unauthorized@ DB 'Unauthorized', 00H	; `string'
CONST	ENDS
;	COMDAT ??_C@_0M@LNAIDEEG@Bad?5Request@
CONST	SEGMENT
??_C@_0M@LNAIDEEG@Bad?5Request@ DB 'Bad Request', 00H	; `string'
CONST	ENDS
;	COMDAT ??_C@_0BD@INBAOFGJ@Permanent?5Redirect@
CONST	SEGMENT
??_C@_0BD@INBAOFGJ@Permanent?5Redirect@ DB 'Permanent Redirect', 00H ; `string'
CONST	ENDS
;	COMDAT ??_C@_0BD@PJMNAMDM@Temporary?5Redirect@
CONST	SEGMENT
??_C@_0BD@PJMNAMDM@Temporary?5Redirect@ DB 'Temporary Redirect', 00H ; `string'
CONST	ENDS
;	COMDAT ??_C@_09JFBGBFIM@Use?5Proxy@
CONST	SEGMENT
??_C@_09JFBGBFIM@Use?5Proxy@ DB 'Use Proxy', 00H	; `string'
CONST	ENDS
;	COMDAT ??_C@_0N@IFEFAIJB@Not?5Modified@
CONST	SEGMENT
??_C@_0N@IFEFAIJB@Not?5Modified@ DB 'Not Modified', 00H	; `string'
CONST	ENDS
;	COMDAT ??_C@_09FAMPMKIP@See?5Other@
CONST	SEGMENT
??_C@_09FAMPMKIP@See?5Other@ DB 'See Other', 00H	; `string'
CONST	ENDS
;	COMDAT ??_C@_05JDGHEPJG@Found@
CONST	SEGMENT
??_C@_05JDGHEPJG@Found@ DB 'Found', 00H			; `string'
CONST	ENDS
;	COMDAT ??_C@_0BC@BPBCNFPI@Moved?5Permanently@
CONST	SEGMENT
??_C@_0BC@BPBCNFPI@Moved?5Permanently@ DB 'Moved Permanently', 00H ; `string'
CONST	ENDS
;	COMDAT ??_C@_0BB@HLFEHKPE@Multiple?5Choices@
CONST	SEGMENT
??_C@_0BB@HLFEHKPE@Multiple?5Choices@ DB 'Multiple Choices', 00H ; `string'
CONST	ENDS
;	COMDAT ??_C@_07EIILAAHO@IM?5Used@
CONST	SEGMENT
??_C@_07EIILAAHO@IM?5Used@ DB 'IM Used', 00H		; `string'
CONST	ENDS
;	COMDAT ??_C@_0BB@BPJDMGEO@Already?5Reported@
CONST	SEGMENT
??_C@_0BB@BPJDMGEO@Already?5Reported@ DB 'Already Reported', 00H ; `string'
CONST	ENDS
;	COMDAT ??_C@_0N@BFLFIKGM@Multi?9Status@
CONST	SEGMENT
??_C@_0N@BFLFIKGM@Multi?9Status@ DB 'Multi-Status', 00H	; `string'
CONST	ENDS
;	COMDAT ??_C@_0BA@NNLNHGMN@Partial?5Content@
CONST	SEGMENT
??_C@_0BA@NNLNHGMN@Partial?5Content@ DB 'Partial Content', 00H ; `string'
CONST	ENDS
;	COMDAT ??_C@_0O@BFFLKCLE@Reset?5Content@
CONST	SEGMENT
??_C@_0O@BFFLKCLE@Reset?5Content@ DB 'Reset Content', 00H ; `string'
CONST	ENDS
;	COMDAT ??_C@_0L@FDPJCNGK@No?5Content@
CONST	SEGMENT
??_C@_0L@FDPJCNGK@No?5Content@ DB 'No Content', 00H	; `string'
CONST	ENDS
;	COMDAT ??_C@_0BO@FFMKBPKJ@Non?9authoritative?5Information@
CONST	SEGMENT
??_C@_0BO@FFMKBPKJ@Non?9authoritative?5Information@ DB 'Non-authoritative'
	DB	' Information', 00H				; `string'
CONST	ENDS
;	COMDAT ??_C@_08DOBOODLA@Accepted@
CONST	SEGMENT
??_C@_08DOBOODLA@Accepted@ DB 'Accepted', 00H		; `string'
CONST	ENDS
;	COMDAT ??_C@_07BBIDHECN@Created@
CONST	SEGMENT
??_C@_07BBIDHECN@Created@ DB 'Created', 00H		; `string'
CONST	ENDS
;	COMDAT ??_C@_02GIPFHKNO@OK@
CONST	SEGMENT
??_C@_02GIPFHKNO@OK@ DB 'OK', 00H			; `string'
CONST	ENDS
;	COMDAT ??_C@_0L@HFFAKEO@Processing@
CONST	SEGMENT
??_C@_0L@HFFAKEO@Processing@ DB 'Processing', 00H	; `string'
CONST	ENDS
;	COMDAT ??_C@_0BE@FGMIEJDD@Switching?5Protocols@
CONST	SEGMENT
??_C@_0BE@FGMIEJDD@Switching?5Protocols@ DB 'Switching Protocols', 00H ; `string'
CONST	ENDS
;	COMDAT ??_C@_08LJHDLOLO@Continue@
CONST	SEGMENT
??_C@_08LJHDLOLO@Continue@ DB 'Continue', 00H		; `string'
CONST	ENDS
;	COMDAT ??_C@_05BJCCKDDP@?$CFlx?$AN?6@
CONST	SEGMENT
??_C@_05BJCCKDDP@?$CFlx?$AN?6@ DB '%lx', 0dH, 0aH, 00H	; `string'
CONST	ENDS
;	COMDAT ??_C@_05CLMJGDKL@?$CF08lx@
CONST	SEGMENT
??_C@_05CLMJGDKL@?$CF08lx@ DB '%08lx', 00H		; `string'
CONST	ENDS
;	COMDAT ??_C@_0L@HNOLOFKI@?5?5?5?5?5?5?5?5?$AN?6@
CONST	SEGMENT
??_C@_0L@HNOLOFKI@?5?5?5?5?5?5?5?5?$AN?6@ DB '        ', 0dH, 0aH, 00H ; `string'
CONST	ENDS
;	COMDAT ??_C@_03BLNIAGKO@204@
CONST	SEGMENT
??_C@_03BLNIAGKO@204@ DB '204', 00H			; `string'
CONST	ENDS
;	COMDAT ??_C@_04HCJEIHPL@POST@
CONST	SEGMENT
??_C@_04HCJEIHPL@POST@ DB 'POST', 00H			; `string'
CONST	ENDS
;	COMDAT ??_C@_03KBBGFLEK@PUT@
CONST	SEGMENT
??_C@_03KBBGFLEK@PUT@ DB 'PUT', 00H			; `string'
CONST	ENDS
;	COMDAT ??_C@_05FKGKDBHO@HTTP?1@
CONST	SEGMENT
??_C@_05FKGKDBHO@HTTP?1@ DB 'HTTP/', 00H		; `string'
CONST	ENDS
;	COMDAT ??_C@_0P@HOJGPHBA@Content?9Length@
CONST	SEGMENT
??_C@_0P@HOJGPHBA@Content?9Length@ DB 'Content-Length', 00H ; `string'
CONST	ENDS
;	COMDAT ??_C@_0BA@LNKDPIGG@?$CFlu?5oom?5?$CFd?9?$DO?$CFd?5@
CONST	SEGMENT
??_C@_0BA@LNKDPIGG@?$CFlu?5oom?5?$CFd?9?$DO?$CFd?5@ DB '%lu oom %d->%d ', 00H ; `string'
CONST	ENDS
;	COMDAT ??_C@_0O@KKGICJJI@mg_http_bauth@
CONST	SEGMENT
??_C@_0O@KKGICJJI@mg_http_bauth@ DB 'mg_http_bauth', 00H ; `string'
CONST	ENDS
;	COMDAT ??_C@_02PCIJFNDE@?$AN?6@
CONST	SEGMENT
??_C@_02PCIJFNDE@?$AN?6@ DB 0dH, 0aH, 00H		; `string'
CONST	ENDS
;	COMDAT ??_C@_0BG@EPHDEOFO@Authorization?3?5Basic?5@
CONST	SEGMENT
??_C@_0BG@EPHDEOFO@Authorization?3?5Basic?5@ DB 'Authorization: Basic ', 00H ; `string'
CONST	ENDS
;	COMDAT ??_C@_08BABJIOEM@filename@
CONST	SEGMENT
??_C@_08BABJIOEM@filename@ DB 'filename', 00H		; `string'
CONST	ENDS
;	COMDAT ??_C@_04MEMAJGDJ@name@
CONST	SEGMENT
??_C@_04MEMAJGDJ@name@ DB 'name', 00H			; `string'
CONST	ENDS
;	COMDAT ??_C@_0BE@LMOOGHBG@Content?9Disposition@
CONST	SEGMENT
??_C@_0BE@LMOOGHBG@Content?9Disposition@ DB 'Content-Disposition', 00H ; `string'
CONST	ENDS
;	COMDAT ??_C@_03DOPCBAKB@a?$CLb@
CONST	SEGMENT
??_C@_03DOPCBAKB@a?$CLb@ DB 'a+b', 00H			; `string'
CONST	ENDS
;	COMDAT ??_C@_02DJGKEECL@?4?4@
CONST	SEGMENT
??_C@_02DJGKEECL@?4?4@ DB '..', 00H			; `string'
CONST	ENDS
;	COMDAT ??_C@_01LFCBOECM@?4@
CONST	SEGMENT
??_C@_01LFCBOECM@?4@ DB '.', 00H			; `string'
CONST	ENDS
;	COMDAT ??_C@_15PKPONJIK@?$AA?2?$AA?$CK@
CONST	SEGMENT
??_C@_15PKPONJIK@?$AA?2?$AA?$CK@ DB '\', 00H, '*', 00H, 00H, 00H ; `string'
CONST	ENDS
;	COMDAT ??_C@_15JJPIMNBO@?$AAr?$AAb@
CONST	SEGMENT
??_C@_15JJPIMNBO@?$AAr?$AAb@ DB 'r', 00H, 'b', 00H, 00H, 00H ; `string'
CONST	ENDS
;	COMDAT ??_C@_06HDKLCKBF@?$CFs?4?4?$CFd@
CONST	SEGMENT
??_C@_06HDKLCKBF@?$CFs?4?4?$CFd@ DB '%s..%d', 00H	; `string'
CONST	ENDS
;	COMDAT ??_C@_02MDDDDAID@0x@
CONST	SEGMENT
??_C@_02MDDDDAID@0x@ DB '0x', 00H			; `string'
CONST	ENDS
;	COMDAT ??_C@_0BB@JCEFLFJE@0123456789abcdef@
CONST	SEGMENT
??_C@_0BB@JCEFLFJE@0123456789abcdef@ DB '0123456789abcdef', 00H ; `string'
CONST	ENDS
;	COMDAT ??_C@_04EBNJJJJI@?$CF?4?$CKs@
CONST	SEGMENT
??_C@_04EBNJJJJI@?$CF?4?$CKs@ DB '%.*s', 00H		; `string'
CONST	ENDS
;	COMDAT ??_C@_03LHCJEHON@nan@
CONST	SEGMENT
??_C@_03LHCJEHON@nan@ DB 'nan', 00H			; `string'
CONST	ENDS
;	COMDAT ??_C@_04DHEMHBNF@?9inf@
CONST	SEGMENT
??_C@_04DHEMHBNF@?9inf@ DB '-inf', 00H			; `string'
CONST	ENDS
;	COMDAT ??_C@_03OJHLLCGB@inf@
CONST	SEGMENT
??_C@_03OJHLLCGB@inf@ DB 'inf', 00H			; `string'
CONST	ENDS
;	COMDAT ??_C@_02DKCKIIND@?$CFs@
CONST	SEGMENT
??_C@_02DKCKIIND@?$CFs@ DB '%s', 00H			; `string'
CONST	ENDS
;	COMDAT ??_C@_0L@PPINGECD@?$CFlu?5?$CFld?5?$CFs@
CONST	SEGMENT
??_C@_0L@PPINGECD@?$CFlu?5?$CFld?5?$CFs@ DB '%lu %ld %s', 00H ; `string'
CONST	ENDS
;	COMDAT ??_C@_08PPPGGPGG@mg_error@
CONST	SEGMENT
??_C@_08PPPGGPGG@mg_error@ DB 'mg_error', 00H		; `string'
CONST	ENDS
;	COMDAT ??_C@_08ECFMEKDO@DNS?5send@
CONST	SEGMENT
??_C@_08ECFMEKDO@DNS?5send@ DB 'DNS send', 00H		; `string'
CONST	ENDS
;	COMDAT ??_C@_0CD@BHFHEJIF@?$CFlu?5resolving?5?$CF?4?$CKs?5?$EA?5?$CFs?0?5txnid?5@
CONST	SEGMENT
??_C@_0CD@BHFHEJIF@?$CFlu?5resolving?5?$CF?4?$CKs?5?$EA?5?$CFs?0?5txnid?5@ DB '%'
	DB	'lu resolving %.*s @ %s, txnid %hu', 00H	; `string'
CONST	ENDS
;	COMDAT ??_C@_0N@IKEIFCGJ@mg_sendnsreq@
CONST	SEGMENT
??_C@_0N@IKEIFCGJ@mg_sendnsreq@ DB 'mg_sendnsreq', 00H	; `string'
CONST	ENDS
;	COMDAT ??_C@_0M@JPBODOLJ@resolve?5OOM@
CONST	SEGMENT
??_C@_0M@JPBODOLJ@resolve?5OOM@ DB 'resolve OOM', 00H	; `string'
CONST	ENDS
;	COMDAT ??_C@_08DKAJKOFH@resolver@
CONST	SEGMENT
??_C@_08DKAJKOFH@resolver@ DB 'resolver', 00H		; `string'
CONST	ENDS
;	COMDAT ??_C@_0CL@JCHAOBLG@DNS?5server?5URL?5is?5NULL?4?5Call?5mg@
CONST	SEGMENT
??_C@_0CL@JCHAOBLG@DNS?5server?5URL?5is?5NULL?4?5Call?5mg@ DB 'DNS server'
	DB	' URL is NULL. Call mg_mgr_init()', 00H	; `string'
CONST	ENDS
;	COMDAT ??_C@_05OPJKAIHI@?$AA?$AA?$AB?$AA?$AB@
CONST	SEGMENT
??_C@_05OPJKAIHI@?$AA?$AA?$AB?$AA?$AB@ DB 00H, 00H, 01H, 00H, 01H, 00H ; `string'
CONST	ENDS
;	COMDAT ??_C@_09MNPPPHEH@DNS?5error@
CONST	SEGMENT
??_C@_09MNPPPHEH@DNS?5error@ DB 'DNS error', 00H	; `string'
CONST	ENDS
;	COMDAT ??_C@_0BA@NIPDPKGJ@stray?5DNS?5reply@
CONST	SEGMENT
??_C@_0BA@NIPDPKGJ@stray?5DNS?5reply@ DB 'stray DNS reply', 00H ; `string'
CONST	ENDS
;	COMDAT ??_C@_0BF@ICMAECGD@?$CFlu?5already?5resolved@
CONST	SEGMENT
??_C@_0BF@ICMAECGD@?$CFlu?5already?5resolved@ DB '%lu already resolved', 00H ; `string'
CONST	ENDS
;	COMDAT ??_C@_0BF@BIFAMDJJ@?$CFs?5DNS?5lookup?5failed@
CONST	SEGMENT
??_C@_0BF@BIFAMDJJ@?$CFs?5DNS?5lookup?5failed@ DB '%s DNS lookup failed', 00H ; `string'
CONST	ENDS
;	COMDAT ??_C@_0N@NMEECLIA@?$CFlu?5?$CFs?5is?5?$CFM@
CONST	SEGMENT
??_C@_0N@NMEECLIA@?$CFlu?5?$CFs?5is?5?$CFM@ DB '%lu %s is %M', 00H ; `string'
CONST	ENDS
;	COMDAT ??_C@_0BJ@COKDKGDG@Unexpected?5DNS?5response?3@
CONST	SEGMENT
??_C@_0BJ@COKDKGDG@Unexpected?5DNS?5response?3@ DB 'Unexpected DNS respon'
	DB	'se:', 00H					; `string'
CONST	ENDS
;	COMDAT ??_C@_0DD@NDGBJGCA@C?3?2Users?2dev?2source?2repos?2alpin@
CONST	SEGMENT
??_C@_0DD@NDGBJGCA@C?3?2Users?2dev?2source?2repos?2alpin@ DB 'C:\Users\de'
	DB	'v\source\repos\alpinevms\src\mongoose.c', 00H ; `string'
CONST	ENDS
;	COMDAT ??_C@_06BPNCNPOK@dns_cb@
CONST	SEGMENT
??_C@_06BPNCNPOK@dns_cb@ DB 'dns_cb', 00H		; `string'
CONST	ENDS
;	COMDAT ??_C@_0M@EKADLLOH@DNS?5timeout@
CONST	SEGMENT
??_C@_0M@EKADLLOH@DNS?5timeout@ DB 'DNS timeout', 00H	; `string'
mg_log_level DD	02H
mg_fs_posix DQ	FLAT:p_stat
	DQ	FLAT:p_list
	DQ	FLAT:p_open
	DQ	FLAT:p_close
	DQ	FLAT:p_read
	DQ	FLAT:p_write
	DQ	FLAT:p_seek
	DQ	FLAT:p_rename
	DQ	FLAT:p_remove
	DQ	FLAT:p_mkdir
mg_fs_packed DQ	FLAT:packed_stat
	DQ	FLAT:packed_list
	DQ	FLAT:packed_open
	DQ	FLAT:packed_close
	DQ	FLAT:packed_read
	DQ	FLAT:packed_write
	DQ	FLAT:packed_seek
	DQ	FLAT:packed_rename
	DQ	FLAT:packed_remove
	DQ	FLAT:packed_mkdir
?crclut@?1??mg_crc32@@9@9 DD 00H			; `mg_crc32'::`2'::crclut
	DD	01db71064H
	DD	03b6e20c8H
	DD	026d930acH
	DD	076dc4190H
	DD	06b6b51f4H
	DD	04db26158H
	DD	05005713cH
	DD	0edb88320H
	DD	0f00f9344H
	DD	0d6d6a3e8H
	DD	0cb61b38cH
	DD	09b64c2b0H
	DD	086d3d2d4H
	DD	0a00ae278H
	DD	0bdbdf21cH
s_prop_map DB	01H
	DB	00H
	DB	02H
	DB	05H
	DB	03H
	DB	01H
	DB	08H
	DB	01H
	DB	09H
	DB	03H
	DB	0bH
	DB	04H
	DB	011H
	DB	05H
	DB	012H
	DB	01H
	DB	013H
	DB	06H
	DB	015H
	DB	01H
	DB	016H
	DB	03H
	DB	017H
	DB	00H
	DB	018H
	DB	05H
	DB	019H
	DB	00H
	DB	01aH
	DB	01H
	DB	01cH
	DB	01H
	DB	01fH
	DB	01H
	DB	021H
	DB	06H
	DB	022H
	DB	06H
	DB	023H
	DB	06H
	DB	024H
	DB	00H
	DB	025H
	DB	00H
	DB	026H
	DB	02H
	DB	027H
	DB	05H
	DB	028H
	DB	00H
	DB	029H
	DB	00H
	DB	02aH
	DB	00H
mg_sha256_k DD	0428a2f98H
	DD	071374491H
	DD	0b5c0fbcfH
	DD	0e9b5dba5H
	DD	03956c25bH
	DD	059f111f1H
	DD	0923f82a4H
	DD	0ab1c5ed5H
	DD	0d807aa98H
	DD	012835b01H
	DD	0243185beH
	DD	0550c7dc3H
	DD	072be5d74H
	DD	080deb1feH
	DD	09bdc06a7H
	DD	0c19bf174H
	DD	0e49b69c1H
	DD	0efbe4786H
	DD	0fc19dc6H
	DD	0240ca1ccH
	DD	02de92c6fH
	DD	04a7484aaH
	DD	05cb0a9dcH
	DD	076f988daH
	DD	0983e5152H
	DD	0a831c66dH
	DD	0b00327c8H
	DD	0bf597fc7H
	DD	0c6e00bf3H
	DD	0d5a79147H
	DD	06ca6351H
	DD	014292967H
	DD	027b70a85H
	DD	02e1b2138H
	DD	04d2c6dfcH
	DD	053380d13H
	DD	0650a7354H
	DD	0766a0abbH
	DD	081c2c92eH
	DD	092722c85H
	DD	0a2bfe8a1H
	DD	0a81a664bH
	DD	0c24b8b70H
	DD	0c76c51a3H
	DD	0d192e819H
	DD	0d6990624H
	DD	0f40e3585H
	DD	0106aa070H
	DD	019a4c116H
	DD	01e376c08H
	DD	02748774cH
	DD	034b0bcb5H
	DD	0391c0cb3H
	DD	04ed8aa4aH
	DD	05b9cca4fH
	DD	0682e6ff3H
	DD	0748f82eeH
	DD	078a5636fH
	DD	084c87814H
	DD	08cc70208H
	DD	090befffaH
	DD	0a4506cebH
	DD	0bef9a3f7H
	DD	0c67178f2H
PUBLIC	mg_ws_wrap
PUBLIC	mg_ws_upgrade
PUBLIC	mg_ws_connect
PUBLIC	mg_ws_send
PUBLIC	mg_ws_printf
PUBLIC	mg_ws_vprintf
PUBLIC	mg_millis
PUBLIC	mg_check_ip_acl
PUBLIC	mg_crc32
PUBLIC	mg_ntohs
PUBLIC	mg_ntohl
PUBLIC	mg_random_str
PUBLIC	mg_random
PUBLIC	mg_bzero
PUBLIC	mg_url_pass
PUBLIC	mg_url_user
PUBLIC	mg_url_port
PUBLIC	mg_url_uri
PUBLIC	mg_url_host
PUBLIC	mg_url_is_ssl
PUBLIC	mg_tls_ctx_free
PUBLIC	mg_tls_ctx_init
PUBLIC	mg_tls_pending
PUBLIC	mg_tls_send
PUBLIC	mg_tls_recv
PUBLIC	mg_tls_free
PUBLIC	mg_tls_handshake
PUBLIC	mg_tls_init
PUBLIC	mg_timer_poll
PUBLIC	mg_timer_expired
PUBLIC	mg_timer_free
PUBLIC	mg_timer_init
PUBLIC	mg_path_is_sane
PUBLIC	mg_unhex
PUBLIC	mg_unhexn
PUBLIC	mg_hex
PUBLIC	mg_commalist
PUBLIC	mg_split
PUBLIC	mg_globmatch
PUBLIC	mg_match
PUBLIC	mg_strstrip
PUBLIC	mg_strstr
PUBLIC	mg_strcmp
PUBLIC	mg_strdup
PUBLIC	mg_vcasecmp
PUBLIC	mg_vcmp
PUBLIC	mg_casecmp
PUBLIC	mg_ncasecmp
PUBLIC	mg_lower
PUBLIC	mg_str_n
PUBLIC	mg_str_s
PUBLIC	mg_http_serve_ssi
PUBLIC	mg_mgr_poll
PUBLIC	mg_wakeup
PUBLIC	mg_wakeup_init
PUBLIC	mg_connect_resolved
PUBLIC	mg_open_listener
PUBLIC	mg_send
PUBLIC	mg_io_send
PUBLIC	mg_sntp_connect
PUBLIC	mg_sntp_request
PUBLIC	mg_sntp_parse
PUBLIC	mg_hmac_sha256
PUBLIC	mg_sha256_final
PUBLIC	mg_sha256_update
PUBLIC	mg_sha256_init
PUBLIC	mg_sha1_final
PUBLIC	mg_sha1_update
PUBLIC	mg_sha1_init
PUBLIC	mg_rpc_list
PUBLIC	mg_rpc_err
PUBLIC	mg_rpc_verr
PUBLIC	mg_rpc_ok
PUBLIC	mg_rpc_vok
PUBLIC	mg_rpc_process
PUBLIC	mg_rpc_del
PUBLIC	mg_rpc_add
PUBLIC	mg_queue_del
PUBLIC	mg_queue_add
PUBLIC	mg_queue_next
PUBLIC	mg_queue_book
PUBLIC	mg_queue_init
PUBLIC	mg_print_esc
PUBLIC	mg_print_base64
PUBLIC	mg_print_hex
PUBLIC	mg_print_mac
PUBLIC	mg_print_ip_port
PUBLIC	mg_print_ip
PUBLIC	mg_print_ip6
PUBLIC	mg_print_ip4
PUBLIC	mg_pfn_stdout
PUBLIC	mg_mprintf
PUBLIC	mg_vmprintf
PUBLIC	mg_snprintf
PUBLIC	mg_vsnprintf
PUBLIC	mg_pfn_iobuf
PUBLIC	mg_queue_printf
PUBLIC	mg_queue_vprintf
PUBLIC	mg_ota_boot
PUBLIC	mg_ota_size
PUBLIC	mg_ota_timestamp
PUBLIC	mg_ota_crc32
PUBLIC	mg_ota_status
PUBLIC	mg_ota_rollback
PUBLIC	mg_ota_commit
PUBLIC	mg_ota_end
PUBLIC	mg_ota_write
PUBLIC	mg_ota_begin
PUBLIC	mg_mgr_init
PUBLIC	mg_mgr_free
PUBLIC	mg_io_recv
PUBLIC	mg_timer_add
PUBLIC	mg_wrapfd
PUBLIC	mg_listen
PUBLIC	mg_connect
PUBLIC	mg_close_conn
PUBLIC	mg_alloc_conn
PUBLIC	mg_aton
PUBLIC	mg_printf
PUBLIC	mg_vprintf
PUBLIC	mg_mqtt_listen
PUBLIC	mg_mqtt_connect
PUBLIC	mg_mqtt_disconnect
PUBLIC	mg_mqtt_pong
PUBLIC	mg_mqtt_ping
PUBLIC	mg_mqtt_parse
PUBLIC	mg_mqtt_sub
PUBLIC	mg_mqtt_pub
PUBLIC	mg_mqtt_login
PUBLIC	mg_mqtt_next_prop
PUBLIC	mg_mqtt_send_header
PUBLIC	mg_md5_final
PUBLIC	mg_md5_update
PUBLIC	mg_md5_init
PUBLIC	mg_hexdump
PUBLIC	mg_log
PUBLIC	mg_log_prefix
PUBLIC	mg_log_set_fn
PUBLIC	mg_json_get_long
PUBLIC	mg_json_get_hex
PUBLIC	mg_json_get_b64
PUBLIC	mg_json_get_str
PUBLIC	mg_json_unescape
PUBLIC	mg_json_get_bool
PUBLIC	mg_json_get_num
PUBLIC	mg_json_get
PUBLIC	mg_json_next
PUBLIC	mg_iobuf_free
PUBLIC	mg_iobuf_del
PUBLIC	mg_iobuf_add
PUBLIC	mg_iobuf_init
PUBLIC	mg_iobuf_resize
PUBLIC	mg_http_listen
PUBLIC	mg_http_connect
PUBLIC	mg_hello
PUBLIC	mg_http_status
PUBLIC	mg_http_upload
PUBLIC	mg_http_match_uri
PUBLIC	mg_http_get_header_var
PUBLIC	mg_http_creds
PUBLIC	mg_url_encode
PUBLIC	mg_http_serve_dir
PUBLIC	mg_http_serve_file
PUBLIC	mg_http_etag
PUBLIC	mg_http_reply
PUBLIC	mg_http_write_chunk
PUBLIC	mg_http_printf_chunk
PUBLIC	mg_http_parse
PUBLIC	mg_http_get_header
PUBLIC	mg_http_get_request_len
PUBLIC	mg_url_decode
PUBLIC	mg_http_get_var
PUBLIC	mg_http_var
PUBLIC	mg_http_bauth
PUBLIC	mg_http_next_multipart
PUBLIC	mg_to_size_t
PUBLIC	readdir
PUBLIC	closedir
PUBLIC	opendir
PUBLIC	mg_unpacked
PUBLIC	mg_unlist
PUBLIC	mg_unpack
PUBLIC	mg_file_printf
PUBLIC	mg_file_write
PUBLIC	mg_file_read
PUBLIC	mg_fs_close
PUBLIC	mg_fs_open
PUBLIC	mg_vxprintf
PUBLIC	mg_xprintf
PUBLIC	mg_error
PUBLIC	mg_call
PUBLIC	mg_resolve
PUBLIC	mg_dns_parse
PUBLIC	mg_dns_parse_rr
PUBLIC	mg_resolve_cancel
PUBLIC	mg_flash_load
PUBLIC	mg_flash_save
PUBLIC	mg_device_reset
PUBLIC	mg_flash_write
PUBLIC	mg_flash_swap_bank
PUBLIC	mg_flash_erase
PUBLIC	mg_flash_bank
PUBLIC	mg_flash_write_align
PUBLIC	mg_flash_sector_size
PUBLIC	mg_flash_size
PUBLIC	mg_flash_start
PUBLIC	mg_base64_decode
PUBLIC	mg_base64_encode
PUBLIC	mg_base64_final
PUBLIC	mg_base64_update
PUBLIC	sscanf
PUBLIC	_vsscanf_l
PUBLIC	__local_stdio_scanf_options
s_log_func_param DQ 01H DUP (?)
_BSS	ENDS
;	COMDAT pdata
pdata	SEGMENT
$pdata$mg_ws_wrap DD imagerel $LN4
	DD	imagerel $LN4+160
	DD	imagerel $unwind$mg_ws_wrap
pdata	ENDS
;	COMDAT pdata
pdata	SEGMENT
$pdata$mg_ws_upgrade DD imagerel $LN6
	DD	imagerel $LN6+215
	DD	imagerel $unwind$mg_ws_upgrade
pdata	ENDS
;	COMDAT pdata
pdata	SEGMENT
$pdata$mg_ws_connect DD imagerel $LN14
	DD	imagerel $LN14+273
	DD	imagerel $unwind$mg_ws_connect
pdata	ENDS
;	COMDAT pdata
pdata	SEGMENT
$pdata$mg_ws_cb DD imagerel mg_ws_cb
	DD	imagerel mg_ws_cb+627
	DD	imagerel $unwind$mg_ws_cb
pdata	ENDS
;	COMDAT pdata
pdata	SEGMENT
$pdata$mg_ws_client_handshake DD imagerel mg_ws_client_handshake
	DD	imagerel mg_ws_client_handshake+194
	DD	imagerel $unwind$mg_ws_client_handshake
pdata	ENDS
;	COMDAT pdata
pdata	SEGMENT
$pdata$mg_ws_send DD imagerel $LN8
	DD	imagerel $LN8+183
	DD	imagerel $unwind$mg_ws_send
pdata	ENDS
;	COMDAT pdata
pdata	SEGMENT
$pdata$mkhdr DD	imagerel mkhdr
	DD	imagerel mkhdr+274
	DD	imagerel $unwind$mkhdr
pdata	ENDS
;	COMDAT pdata
pdata	SEGMENT
$pdata$ws_process DD imagerel ws_process
	DD	imagerel ws_process+315
	DD	imagerel $unwind$ws_process
pdata	ENDS
;	COMDAT pdata
pdata	SEGMENT
$pdata$ws_handshake DD imagerel ws_handshake
	DD	imagerel ws_handshake+284
	DD	imagerel $unwind$ws_handshake
pdata	ENDS
;	COMDAT pdata
pdata	SEGMENT
$pdata$mg_ws_printf DD imagerel $LN4
	DD	imagerel $LN4+37
	DD	imagerel $unwind$mg_ws_printf
pdata	ENDS
;	COMDAT pdata
pdata	SEGMENT
$pdata$mg_ws_vprintf DD imagerel $LN4
	DD	imagerel $LN4+90
	DD	imagerel $unwind$mg_ws_vprintf
pdata	ENDS
;	COMDAT pdata
pdata	SEGMENT
$pdata$mg_millis DD imagerel $LN4
	DD	imagerel $LN4+17
	DD	imagerel $unwind$mg_millis
pdata	ENDS
;	COMDAT pdata
pdata	SEGMENT
$pdata$mg_check_ip_acl DD imagerel $LN26
	DD	imagerel $LN26+210
	DD	imagerel $unwind$mg_check_ip_acl
pdata	ENDS
;	COMDAT pdata
pdata	SEGMENT
$pdata$parse_net DD imagerel parse_net
	DD	imagerel parse_net+266
	DD	imagerel $unwind$parse_net
pdata	ENDS
;	COMDAT pdata
pdata	SEGMENT
$pdata$mg_random_str DD imagerel $LN13
	DD	imagerel $LN13+131
	DD	imagerel $unwind$mg_random_str
pdata	ENDS
;	COMDAT pdata
pdata	SEGMENT
$pdata$mg_random DD imagerel $LN10
	DD	imagerel $LN10+51
	DD	imagerel $unwind$mg_random
pdata	ENDS
;	COMDAT pdata
pdata	SEGMENT
$pdata$mg_url_pass DD imagerel $LN9
	DD	imagerel $LN9+124
	DD	imagerel $unwind$mg_url_pass
pdata	ENDS
;	COMDAT pdata
pdata	SEGMENT
$pdata$mg_url_user DD imagerel $LN12
	DD	imagerel $LN12+155
	DD	imagerel $unwind$mg_url_user
pdata	ENDS
;	COMDAT pdata
pdata	SEGMENT
$pdata$mg_url_port DD imagerel $LN11
	DD	imagerel $LN11+267
	DD	imagerel $unwind$mg_url_port
pdata	ENDS
;	COMDAT pdata
pdata	SEGMENT
$pdata$mg_url_uri DD imagerel $LN4
	DD	imagerel $LN4+63
	DD	imagerel $unwind$mg_url_uri
pdata	ENDS
;	COMDAT pdata
pdata	SEGMENT
$pdata$mg_url_host DD imagerel $LN6
	DD	imagerel $LN6+129
	DD	imagerel $unwind$mg_url_host
pdata	ENDS
;	COMDAT pdata
pdata	SEGMENT
$pdata$mg_url_is_ssl DD imagerel $LN6
	DD	imagerel $LN6+186
	DD	imagerel $unwind$mg_url_is_ssl
pdata	ENDS
;	COMDAT pdata
pdata	SEGMENT
$pdata$mg_timer_poll DD imagerel $LN20
	DD	imagerel $LN20+129
	DD	imagerel $unwind$mg_timer_poll
pdata	ENDS
;	COMDAT pdata
pdata	SEGMENT
$pdata$mg_unhex DD imagerel $LN12
	DD	imagerel $LN12+86
	DD	imagerel $unwind$mg_unhex
pdata	ENDS
;	COMDAT pdata
pdata	SEGMENT
$pdata$mg_split DD imagerel $LN14
	DD	imagerel $LN14+217
	DD	imagerel $unwind$mg_split
pdata	ENDS
;	COMDAT pdata
pdata	SEGMENT
$pdata$mg_globmatch DD imagerel $LN8
	DD	imagerel $LN8+41
	DD	imagerel $unwind$mg_globmatch
pdata	ENDS
;	COMDAT pdata
pdata	SEGMENT
$pdata$mg_match DD imagerel $LN40
	DD	imagerel $LN40+358
	DD	imagerel $unwind$mg_match
pdata	ENDS
;	COMDAT pdata
pdata	SEGMENT
$pdata$mg_strstr DD imagerel $LN16
	DD	imagerel $LN16+118
	DD	imagerel $unwind$mg_strstr
pdata	ENDS
;	COMDAT pdata
pdata	SEGMENT
$pdata$mg_strdup DD imagerel $LN6
	DD	imagerel $LN6+125
	DD	imagerel $unwind$mg_strdup
pdata	ENDS
;	COMDAT pdata
pdata	SEGMENT
$pdata$mg_vcasecmp DD imagerel $LN6
	DD	imagerel $LN6+64
	DD	imagerel $unwind$mg_vcasecmp
pdata	ENDS
;	COMDAT pdata
pdata	SEGMENT
$pdata$mg_vcmp DD imagerel $LN5
	DD	imagerel $LN5+52
	DD	imagerel $unwind$mg_vcmp
pdata	ENDS
;	COMDAT pdata
pdata	SEGMENT
$pdata$mg_ncasecmp DD imagerel $LN18
	DD	imagerel $LN18+84
	DD	imagerel $unwind$mg_ncasecmp
pdata	ENDS
;	COMDAT pdata
pdata	SEGMENT
$pdata$mg_mgr_poll DD imagerel $LN32
	DD	imagerel $LN32+499
	DD	imagerel $unwind$mg_mgr_poll
pdata	ENDS
;	COMDAT pdata
pdata	SEGMENT
$pdata$mg_wakeup DD imagerel $LN6
	DD	imagerel $LN6+146
	DD	imagerel $unwind$mg_wakeup
pdata	ENDS
;	COMDAT pdata
pdata	SEGMENT
$pdata$mg_wakeup_init DD imagerel $LN19
	DD	imagerel $LN19+253
	DD	imagerel $unwind$mg_wakeup_init
pdata	ENDS
;	COMDAT pdata
pdata	SEGMENT
$pdata$wufn DD	imagerel wufn
	DD	imagerel wufn+153
	DD	imagerel $unwind$wufn
pdata	ENDS
;	COMDAT pdata
pdata	SEGMENT
$pdata$mg_socketpair DD imagerel mg_socketpair
	DD	imagerel mg_socketpair+336
	DD	imagerel $unwind$mg_socketpair
pdata	ENDS
;	COMDAT pdata
pdata	SEGMENT
$pdata$mg_iotest DD imagerel mg_iotest
	DD	imagerel mg_iotest+673
	DD	imagerel $unwind$mg_iotest
pdata	ENDS
;	COMDAT pdata
pdata	SEGMENT
$pdata$accept_conn DD imagerel accept_conn
	DD	imagerel accept_conn+492
	DD	imagerel $unwind$accept_conn
pdata	ENDS
;	COMDAT pdata
pdata	SEGMENT
$pdata$raccept DD imagerel raccept
	DD	imagerel raccept+94
	DD	imagerel $unwind$raccept
pdata	ENDS
;	COMDAT pdata
pdata	SEGMENT
$pdata$mg_connect_resolved DD imagerel $LN24
	DD	imagerel $LN24+401
	DD	imagerel $unwind$mg_connect_resolved
pdata	ENDS
;	COMDAT pdata
pdata	SEGMENT
$pdata$setsockopts DD imagerel setsockopts
	DD	imagerel setsockopts+87
	DD	imagerel $unwind$setsockopts
pdata	ENDS
;	COMDAT pdata
pdata	SEGMENT
$pdata$connect_conn DD imagerel connect_conn
	DD	imagerel connect_conn+82
	DD	imagerel $unwind$connect_conn
pdata	ENDS
;	COMDAT pdata
pdata	SEGMENT
$pdata$close_conn DD imagerel close_conn
	DD	imagerel close_conn+38
	DD	imagerel $unwind$close_conn
pdata	ENDS
;	COMDAT pdata
pdata	SEGMENT
$pdata$write_conn DD imagerel write_conn
	DD	imagerel write_conn+203
	DD	imagerel $unwind$write_conn
pdata	ENDS
;	COMDAT pdata
pdata	SEGMENT
$pdata$read_conn DD imagerel read_conn
	DD	imagerel read_conn+351
	DD	imagerel $unwind$read_conn
pdata	ENDS
;	COMDAT pdata
pdata	SEGMENT
$pdata$ioalloc DD imagerel ioalloc
	DD	imagerel ioalloc+98
	DD	imagerel $unwind$ioalloc
pdata	ENDS
;	COMDAT pdata
pdata	SEGMENT
$pdata$recv_raw DD imagerel recv_raw
	DD	imagerel recv_raw+218
	DD	imagerel $unwind$recv_raw
pdata	ENDS
;	COMDAT pdata
pdata	SEGMENT
$pdata$mg_open_listener DD imagerel $LN47
	DD	imagerel $LN47+682
	DD	imagerel $unwind$mg_open_listener
pdata	ENDS
;	COMDAT pdata
pdata	SEGMENT
$pdata$mg_set_non_blocking_mode DD imagerel mg_set_non_blocking_mode
	DD	imagerel mg_set_non_blocking_mode+33
	DD	imagerel $unwind$mg_set_non_blocking_mode
pdata	ENDS
;	COMDAT pdata
pdata	SEGMENT
$pdata$mg_send DD imagerel $LN12
	DD	imagerel $LN12+188
	DD	imagerel $unwind$mg_send
pdata	ENDS
;	COMDAT pdata
pdata	SEGMENT
$pdata$mg_io_send DD imagerel $LN14
	DD	imagerel $LN14+211
	DD	imagerel $unwind$mg_io_send
pdata	ENDS
;	COMDAT pdata
pdata	SEGMENT
$pdata$iolog DD	imagerel iolog
	DD	imagerel iolog+303
	DD	imagerel $unwind$iolog
pdata	ENDS
;	COMDAT pdata
pdata	SEGMENT
$pdata$setlocaddr DD imagerel setlocaddr
	DD	imagerel setlocaddr+69
	DD	imagerel $unwind$setlocaddr
pdata	ENDS
;	COMDAT pdata
pdata	SEGMENT
$pdata$mg_sntp_connect DD imagerel $LN6
	DD	imagerel $LN6+50
	DD	imagerel $unwind$mg_sntp_connect
pdata	ENDS
;	COMDAT pdata
pdata	SEGMENT
$pdata$mg_sntp_request DD imagerel $LN16
	DD	imagerel $LN16+299
	DD	imagerel $unwind$mg_sntp_request
pdata	ENDS
;	COMDAT pdata
pdata	SEGMENT
$pdata$sntp_cb DD imagerel sntp_cb
	DD	imagerel sntp_cb+241
	DD	imagerel $unwind$sntp_cb
pdata	ENDS
;	COMDAT pdata
pdata	SEGMENT
$pdata$mg_sntp_parse DD imagerel $LN44
	DD	imagerel $LN44+438
	DD	imagerel $unwind$mg_sntp_parse
pdata	ENDS
;	COMDAT pdata
pdata	SEGMENT
$pdata$mg_hmac_sha256 DD imagerel $LN23
	DD	imagerel $LN23+541
	DD	imagerel $unwind$mg_hmac_sha256
pdata	ENDS
;	COMDAT pdata
pdata	SEGMENT
$pdata$mg_sha256_final DD imagerel $LN25
	DD	imagerel $LN25+299
	DD	imagerel $unwind$mg_sha256_final
pdata	ENDS
;	COMDAT pdata
pdata	SEGMENT
$pdata$mg_sha256_update DD imagerel $LN13
	DD	imagerel $LN13+106
	DD	imagerel $unwind$mg_sha256_update
pdata	ENDS
;	COMDAT pdata
pdata	SEGMENT
$pdata$mg_sha256_chunk DD imagerel mg_sha256_chunk
	DD	imagerel mg_sha256_chunk+410
	DD	imagerel $unwind$mg_sha256_chunk
pdata	ENDS
;	COMDAT pdata
pdata	SEGMENT
$pdata$mg_sha1_final DD imagerel $LN26
	DD	imagerel $LN26+211
	DD	imagerel $unwind$mg_sha1_final
pdata	ENDS
;	COMDAT pdata
pdata	SEGMENT
$pdata$mg_sha1_update DD imagerel $LN17
	DD	imagerel $LN17+205
	DD	imagerel $unwind$mg_sha1_update
pdata	ENDS
;	COMDAT pdata
pdata	SEGMENT
$pdata$mg_sha1_transform DD imagerel mg_sha1_transform
	DD	imagerel mg_sha1_transform+4869
	DD	imagerel $unwind$mg_sha1_transform
pdata	ENDS
;	COMDAT pdata
pdata	SEGMENT
$pdata$print_methods DD imagerel print_methods
	DD	imagerel print_methods+166
	DD	imagerel $unwind$print_methods
pdata	ENDS
;	COMDAT pdata
pdata	SEGMENT
$pdata$mg_rpc_err DD imagerel $LN4
	DD	imagerel $LN4+37
	DD	imagerel $unwind$mg_rpc_err
pdata	ENDS
;	COMDAT pdata
pdata	SEGMENT
$pdata$mg_rpc_verr DD imagerel $LN5
	DD	imagerel $LN5+339
	DD	imagerel $unwind$mg_rpc_verr
pdata	ENDS
;	COMDAT pdata
pdata	SEGMENT
$pdata$mg_rpc_ok DD imagerel $LN4
	DD	imagerel $LN4+41
	DD	imagerel $unwind$mg_rpc_ok
pdata	ENDS
;	COMDAT pdata
pdata	SEGMENT
$pdata$mg_rpc_vok DD imagerel $LN5
	DD	imagerel $LN5+223
	DD	imagerel $unwind$mg_rpc_vok
pdata	ENDS
;	COMDAT pdata
pdata	SEGMENT
$pdata$mg_rpc_process DD imagerel $LN18
	DD	imagerel $LN18+238
	DD	imagerel $unwind$mg_rpc_process
pdata	ENDS
;	COMDAT pdata
pdata	SEGMENT
$pdata$mg_rpc_call DD imagerel mg_rpc_call
	DD	imagerel mg_rpc_call+137
	DD	imagerel $unwind$mg_rpc_call
pdata	ENDS
;	COMDAT pdata
pdata	SEGMENT
$pdata$mg_rpc_del DD imagerel $LN13
	DD	imagerel $LN13+91
	DD	imagerel $unwind$mg_rpc_del
pdata	ENDS
;	COMDAT pdata
pdata	SEGMENT
$pdata$mg_rpc_add DD imagerel $LN5
	DD	imagerel $LN5+136
	DD	imagerel $unwind$mg_rpc_add
pdata	ENDS
;	COMDAT pdata
pdata	SEGMENT
$pdata$mg_queue_book DD imagerel $LN11
	DD	imagerel $LN11+169
	DD	imagerel $unwind$mg_queue_book
pdata	ENDS
;	COMDAT pdata
pdata	SEGMENT
$pdata$mg_print_hex DD imagerel $LN11
	DD	imagerel $LN11+139
	DD	imagerel $unwind$mg_print_hex
pdata	ENDS
;	COMDAT pdata
pdata	SEGMENT
$pdata$bcpy DD	imagerel bcpy
	DD	imagerel bcpy+333
	DD	imagerel $unwind$bcpy
pdata	ENDS
;	COMDAT pdata
pdata	SEGMENT
$pdata$qcpy DD	imagerel qcpy
	DD	imagerel qcpy+140
	DD	imagerel $unwind$qcpy
pdata	ENDS
;	COMDAT pdata
pdata	SEGMENT
$pdata$mg_print_mac DD imagerel $LN4
	DD	imagerel $LN4+96
	DD	imagerel $unwind$mg_print_mac
pdata	ENDS
;	COMDAT pdata
pdata	SEGMENT
$pdata$mg_print_ip_port DD imagerel $LN6
	DD	imagerel $LN6+75
	DD	imagerel $unwind$mg_print_ip_port
pdata	ENDS
;	COMDAT pdata
pdata	SEGMENT
$pdata$print_ip6 DD imagerel print_ip6
	DD	imagerel print_ip6+297
	DD	imagerel $unwind$print_ip6
pdata	ENDS
;	COMDAT pdata
pdata	SEGMENT
$pdata$print_ip4 DD imagerel print_ip4
	DD	imagerel print_ip4+54
	DD	imagerel $unwind$print_ip4
pdata	ENDS
;	COMDAT pdata
pdata	SEGMENT
$pdata$mg_mprintf DD imagerel $LN4
	DD	imagerel $LN4+45
	DD	imagerel $unwind$mg_mprintf
pdata	ENDS
;	COMDAT pdata
pdata	SEGMENT
$pdata$mg_vmprintf DD imagerel $LN4
	DD	imagerel $LN4+61
	DD	imagerel $unwind$mg_vmprintf
pdata	ENDS
;	COMDAT pdata
pdata	SEGMENT
$pdata$mg_snprintf DD imagerel $LN4
	DD	imagerel $LN4+37
	DD	imagerel $unwind$mg_snprintf
pdata	ENDS
;	COMDAT pdata
pdata	SEGMENT
$pdata$mg_vsnprintf DD imagerel $LN5
	DD	imagerel $LN5+72
	DD	imagerel $unwind$mg_vsnprintf
pdata	ENDS
;	COMDAT pdata
pdata	SEGMENT
$pdata$mg_pfn_iobuf_private DD imagerel mg_pfn_iobuf_private
	DD	imagerel mg_pfn_iobuf_private+109
	DD	imagerel $unwind$mg_pfn_iobuf_private
pdata	ENDS
;	COMDAT pdata
pdata	SEGMENT
$pdata$mg_queue_printf DD imagerel $LN4
	DD	imagerel $LN4+41
	DD	imagerel $unwind$mg_queue_printf
pdata	ENDS
;	COMDAT pdata
pdata	SEGMENT
$pdata$mg_queue_vprintf DD imagerel $LN11
	DD	imagerel $LN11+148
	DD	imagerel $unwind$mg_queue_vprintf
pdata	ENDS
;	COMDAT pdata
pdata	SEGMENT
$pdata$mg_mgr_init DD imagerel $LN4
	DD	imagerel $LN4+88
	DD	imagerel $unwind$mg_mgr_init
pdata	ENDS
;	COMDAT pdata
pdata	SEGMENT
$pdata$mg_mgr_free DD imagerel $LN22
	DD	imagerel $LN22+130
	DD	imagerel $unwind$mg_mgr_free
pdata	ENDS
;	COMDAT pdata
pdata	SEGMENT
$pdata$mg_io_recv DD imagerel $LN6
	DD	imagerel $LN6+89
	DD	imagerel $unwind$mg_io_recv
pdata	ENDS
;	COMDAT pdata
pdata	SEGMENT
$pdata$mg_timer_add DD imagerel $LN7
	DD	imagerel $LN7+127
	DD	imagerel $unwind$mg_timer_add
pdata	ENDS
;	COMDAT pdata
pdata	SEGMENT
$pdata$mg_wrapfd DD imagerel $LN8
	DD	imagerel $LN8+103
	DD	imagerel $unwind$mg_wrapfd
pdata	ENDS
;	COMDAT pdata
pdata	SEGMENT
$pdata$mg_listen DD imagerel $LN24
	DD	imagerel $LN24+386
	DD	imagerel $unwind$mg_listen
pdata	ENDS
;	COMDAT pdata
pdata	SEGMENT
$pdata$mg_connect DD imagerel $LN25
	DD	imagerel $LN25+354
	DD	imagerel $unwind$mg_connect
pdata	ENDS
;	COMDAT pdata
pdata	SEGMENT
$pdata$mg_close_conn DD imagerel $LN35
	DD	imagerel $LN35+212
	DD	imagerel $unwind$mg_close_conn
pdata	ENDS
;	COMDAT pdata
pdata	SEGMENT
$pdata$mg_alloc_conn DD imagerel $LN5
	DD	imagerel $LN5+78
	DD	imagerel $unwind$mg_alloc_conn
pdata	ENDS
;	COMDAT pdata
pdata	SEGMENT
$pdata$mg_aton DD imagerel $LN10
	DD	imagerel $LN10+144
	DD	imagerel $unwind$mg_aton
pdata	ENDS
;	COMDAT pdata
pdata	SEGMENT
$pdata$mg_aton6 DD imagerel mg_aton6
	DD	imagerel mg_aton6+419
	DD	imagerel $unwind$mg_aton6
pdata	ENDS
;	COMDAT pdata
pdata	SEGMENT
$pdata$mg_v4mapped DD imagerel mg_v4mapped
	DD	imagerel mg_v4mapped+122
	DD	imagerel $unwind$mg_v4mapped
pdata	ENDS
;	COMDAT pdata
pdata	SEGMENT
$pdata$mg_atonl DD imagerel mg_atonl
	DD	imagerel mg_atonl+47
	DD	imagerel $unwind$mg_atonl
pdata	ENDS
;	COMDAT pdata
pdata	SEGMENT
$pdata$mg_printf DD imagerel $LN4
	DD	imagerel $LN4+41
	DD	imagerel $unwind$mg_printf
pdata	ENDS
;	COMDAT pdata
pdata	SEGMENT
$pdata$mg_vprintf DD imagerel $LN4
	DD	imagerel $LN4+60
	DD	imagerel $unwind$mg_vprintf
pdata	ENDS
;	COMDAT pdata
pdata	SEGMENT
$pdata$mg_mqtt_listen DD imagerel $LN5
	DD	imagerel $LN5+46
	DD	imagerel $unwind$mg_mqtt_listen
pdata	ENDS
;	COMDAT pdata
pdata	SEGMENT
$pdata$mg_mqtt_connect DD imagerel $LN5
	DD	imagerel $LN5+113
	DD	imagerel $unwind$mg_mqtt_connect
pdata	ENDS
;	COMDAT pdata
pdata	SEGMENT
$pdata$mg_mqtt_disconnect DD imagerel $LN17
	DD	imagerel $LN17+158
	DD	imagerel $unwind$mg_mqtt_disconnect
pdata	ENDS
;	COMDAT pdata
pdata	SEGMENT
$pdata$mqtt_cb DD imagerel mqtt_cb
	DD	imagerel mqtt_cb+707
	DD	imagerel $unwind$mqtt_cb
pdata	ENDS
;	COMDAT pdata
pdata	SEGMENT
$pdata$mg_mqtt_parse DD imagerel $LN51
	DD	imagerel $LN51+503
	DD	imagerel $unwind$mg_mqtt_parse
pdata	ENDS
;	COMDAT pdata
pdata	SEGMENT
$pdata$mg_mqtt_sub DD imagerel $LN26
	DD	imagerel $LN26+297
	DD	imagerel $unwind$mg_mqtt_sub
pdata	ENDS
;	COMDAT pdata
pdata	SEGMENT
$pdata$mg_mqtt_pub DD imagerel $LN34
	DD	imagerel $LN34+408
	DD	imagerel $unwind$mg_mqtt_pub
pdata	ENDS
;	COMDAT pdata
pdata	SEGMENT
$pdata$mg_mqtt_login DD imagerel $LN77
	DD	imagerel $LN77+889
	DD	imagerel $unwind$mg_mqtt_login
pdata	ENDS
;	COMDAT pdata
pdata	SEGMENT
$pdata$mg_mqtt_next_prop DD imagerel $LN17
	DD	imagerel $LN17+366
	DD	imagerel $unwind$mg_mqtt_next_prop
pdata	ENDS
;	COMDAT pdata
pdata	SEGMENT
$pdata$mg_send_mqtt_properties DD imagerel mg_send_mqtt_properties
	DD	imagerel mg_send_mqtt_properties+440
	DD	imagerel $unwind$mg_send_mqtt_properties
pdata	ENDS
;	COMDAT pdata
pdata	SEGMENT
$pdata$get_props_size DD imagerel get_props_size
	DD	imagerel get_props_size+39
	DD	imagerel $unwind$get_props_size
pdata	ENDS
;	COMDAT pdata
pdata	SEGMENT
$pdata$get_properties_length DD imagerel get_properties_length
	DD	imagerel get_properties_length+152
	DD	imagerel $unwind$get_properties_length
pdata	ENDS
;	COMDAT pdata
pdata	SEGMENT
$pdata$decode_varint DD imagerel decode_varint
	DD	imagerel decode_varint+83
	DD	imagerel $unwind$decode_varint
pdata	ENDS
;	COMDAT pdata
pdata	SEGMENT
$pdata$mg_send_u32 DD imagerel mg_send_u32
	DD	imagerel mg_send_u32+29
	DD	imagerel $unwind$mg_send_u32
pdata	ENDS
;	COMDAT pdata
pdata	SEGMENT
$pdata$mg_send_u16 DD imagerel mg_send_u16
	DD	imagerel mg_send_u16+30
	DD	imagerel $unwind$mg_send_u16
pdata	ENDS
;	COMDAT pdata
pdata	SEGMENT
$pdata$mg_mqtt_send_header DD imagerel $LN13
	DD	imagerel $LN13+88
	DD	imagerel $unwind$mg_mqtt_send_header
pdata	ENDS
;	COMDAT pdata
pdata	SEGMENT
$pdata$mg_md5_final DD imagerel $LN6
	DD	imagerel $LN6+180
	DD	imagerel $unwind$mg_md5_final
pdata	ENDS
;	COMDAT pdata
pdata	SEGMENT
$pdata$mg_md5_update DD imagerel $LN17
	DD	imagerel $LN17+240
	DD	imagerel $unwind$mg_md5_update
pdata	ENDS
;	COMDAT pdata
pdata	SEGMENT
$pdata$mg_md5_transform DD imagerel mg_md5_transform
	DD	imagerel mg_md5_transform+2020
	DD	imagerel $unwind$mg_md5_transform
pdata	ENDS
;	COMDAT pdata
pdata	SEGMENT
$pdata$mg_hexdump DD imagerel $LN56
	DD	imagerel $LN56+459
	DD	imagerel $unwind$mg_hexdump
pdata	ENDS
;	COMDAT pdata
pdata	SEGMENT
$pdata$mg_log DD imagerel $LN4
	DD	imagerel $LN4+85
	DD	imagerel $unwind$mg_log
pdata	ENDS
;	COMDAT pdata
pdata	SEGMENT
$pdata$mg_log_prefix DD imagerel $LN15
	DD	imagerel $LN15+212
	DD	imagerel $unwind$mg_log_prefix
pdata	ENDS
;	COMDAT pdata
pdata	SEGMENT
$pdata$logs DD	imagerel logs
	DD	imagerel logs+68
	DD	imagerel $unwind$logs
pdata	ENDS
;	COMDAT pdata
pdata	SEGMENT
$pdata$mg_json_get_long DD imagerel $LN5
	DD	imagerel $LN5+56
	DD	imagerel $unwind$mg_json_get_long
pdata	ENDS
;	COMDAT pdata
pdata	SEGMENT
$pdata$mg_json_get_hex DD imagerel $LN6
	DD	imagerel $LN6+168
	DD	imagerel $unwind$mg_json_get_hex
pdata	ENDS
;	COMDAT pdata
pdata	SEGMENT
$pdata$mg_json_get_b64 DD imagerel $LN6
	DD	imagerel $LN6+162
	DD	imagerel $unwind$mg_json_get_b64
pdata	ENDS
;	COMDAT pdata
pdata	SEGMENT
$pdata$mg_json_get_str DD imagerel $LN8
	DD	imagerel $LN8+170
	DD	imagerel $unwind$mg_json_get_str
pdata	ENDS
;	COMDAT pdata
pdata	SEGMENT
$pdata$mg_json_unescape DD imagerel $LN24
	DD	imagerel $LN24+217
	DD	imagerel $unwind$mg_json_unescape
pdata	ENDS
;	COMDAT pdata
pdata	SEGMENT
$pdata$mg_json_get_bool DD imagerel $LN7
	DD	imagerel $LN7+103
	DD	imagerel $unwind$mg_json_get_bool
pdata	ENDS
;	COMDAT pdata
pdata	SEGMENT
$pdata$mg_json_get_num DD imagerel $LN7
	DD	imagerel $LN7+122
	DD	imagerel $unwind$mg_json_get_num
pdata	ENDS
;	COMDAT pdata
pdata	SEGMENT
$pdata$mg_json_get DD imagerel $LN150
	DD	imagerel $LN150+1293
	DD	imagerel $unwind$mg_json_get
pdata	ENDS
;	COMDAT pdata
pdata	SEGMENT
$pdata$mg_json_next DD imagerel $LN61
	DD	imagerel $LN61+513
	DD	imagerel $unwind$mg_json_next
pdata	ENDS
;	COMDAT pdata
pdata	SEGMENT
$pdata$mg_atod DD imagerel mg_atod
	DD	imagerel mg_atod+412
	DD	imagerel $unwind$mg_atod
pdata	ENDS
;	COMDAT pdata
pdata	SEGMENT
$pdata$mg_pass_string DD imagerel mg_pass_string
	DD	imagerel mg_pass_string+133
	DD	imagerel $unwind$mg_pass_string
pdata	ENDS
;	COMDAT pdata
pdata	SEGMENT
$pdata$mg_iobuf_del DD imagerel $LN19
	DD	imagerel $LN19+126
	DD	imagerel $unwind$mg_iobuf_del
pdata	ENDS
;	COMDAT pdata
pdata	SEGMENT
$pdata$mg_iobuf_add DD imagerel $LN12
	DD	imagerel $LN12+185
	DD	imagerel $unwind$mg_iobuf_add
pdata	ENDS
;	COMDAT pdata
pdata	SEGMENT
$pdata$mg_iobuf_resize DD imagerel $LN55
	DD	imagerel $LN55+307
	DD	imagerel $unwind$mg_iobuf_resize
pdata	ENDS
;	COMDAT pdata
pdata	SEGMENT
$pdata$mg_http_listen DD imagerel $LN5
	DD	imagerel $LN5+33
	DD	imagerel $unwind$mg_http_listen
pdata	ENDS
;	COMDAT pdata
pdata	SEGMENT
$pdata$mg_http_connect DD imagerel $LN5
	DD	imagerel $LN5+33
	DD	imagerel $unwind$mg_http_connect
pdata	ENDS
;	COMDAT pdata
pdata	SEGMENT
$pdata$mg_hello DD imagerel $LN15
	DD	imagerel $LN15+141
	DD	imagerel $unwind$mg_hello
pdata	ENDS
;	COMDAT pdata
pdata	SEGMENT
$pdata$mg_hfn DD imagerel mg_hfn
	DD	imagerel mg_hfn+236
	DD	imagerel $unwind$mg_hfn
pdata	ENDS
;	COMDAT pdata
pdata	SEGMENT
$pdata$http_cb DD imagerel http_cb
	DD	imagerel http_cb+729
	DD	imagerel $unwind$http_cb
pdata	ENDS
;	COMDAT pdata
pdata	SEGMENT
$pdata$skip_chunk DD imagerel skip_chunk
	DD	imagerel skip_chunk+212
	DD	imagerel $unwind$skip_chunk
pdata	ENDS
;	COMDAT pdata
pdata	SEGMENT
$pdata$mg_http_upload DD imagerel $LN24
	DD	imagerel $LN24+548
	DD	imagerel $unwind$mg_http_upload
pdata	ENDS
;	COMDAT pdata
pdata	SEGMENT
$pdata$mg_http_match_uri DD imagerel $LN9
	DD	imagerel $LN9+70
	DD	imagerel $unwind$mg_http_match_uri
pdata	ENDS
;	COMDAT pdata
pdata	SEGMENT
$pdata$mg_http_get_header_var DD imagerel $LN44
	DD	imagerel $LN44+299
	DD	imagerel $unwind$mg_http_get_header_var
pdata	ENDS
;	COMDAT pdata
pdata	SEGMENT
$pdata$stripquotes DD imagerel stripquotes
	DD	imagerel stripquotes+65
	DD	imagerel $unwind$stripquotes
pdata	ENDS
;	COMDAT pdata
pdata	SEGMENT
$pdata$mg_http_creds DD imagerel $LN17
	DD	imagerel $LN17+485
	DD	imagerel $unwind$mg_http_creds
pdata	ENDS
;	COMDAT pdata
pdata	SEGMENT
$pdata$mg_url_encode DD imagerel $LN20
	DD	imagerel $LN20+164
	DD	imagerel $unwind$mg_url_encode
pdata	ENDS
;	COMDAT pdata
pdata	SEGMENT
$pdata$mg_http_serve_dir DD imagerel $LN20
	DD	imagerel $LN20+231
	DD	imagerel $unwind$mg_http_serve_dir
pdata	ENDS
;	COMDAT pdata
pdata	SEGMENT
$pdata$uri_to_path DD imagerel uri_to_path
	DD	imagerel uri_to_path+381
	DD	imagerel $unwind$uri_to_path
pdata	ENDS
;	COMDAT pdata
pdata	SEGMENT
$pdata$uri_to_path2 DD imagerel uri_to_path2
	DD	imagerel uri_to_path2+618
	DD	imagerel $unwind$uri_to_path2
pdata	ENDS
;	COMDAT pdata
pdata	SEGMENT
$pdata$listdir DD imagerel listdir
	DD	imagerel listdir+416
	DD	imagerel $unwind$listdir
pdata	ENDS
;	COMDAT pdata
pdata	SEGMENT
$pdata$printdirentry DD imagerel printdirentry
	DD	imagerel printdirentry+500
	DD	imagerel $unwind$printdirentry
pdata	ENDS
;	COMDAT pdata
pdata	SEGMENT
$pdata$mg_http_serve_file DD imagerel $LN55
	DD	imagerel $LN55+1058
	DD	imagerel $unwind$mg_http_serve_file
pdata	ENDS
;	COMDAT pdata
pdata	SEGMENT
$pdata$getrange DD imagerel getrange
	DD	imagerel getrange+257
	DD	imagerel $unwind$getrange
pdata	ENDS
;	COMDAT pdata
pdata	SEGMENT
$pdata$guess_content_type DD imagerel guess_content_type
	DD	imagerel guess_content_type+301
	DD	imagerel $unwind$guess_content_type
pdata	ENDS
;	COMDAT pdata
pdata	SEGMENT
$pdata$static_cb DD imagerel static_cb
	DD	imagerel static_cb+149
	DD	imagerel $unwind$static_cb
pdata	ENDS
;	COMDAT pdata
pdata	SEGMENT
$pdata$mg_http_etag DD imagerel $LN4
	DD	imagerel $LN4+40
	DD	imagerel $unwind$mg_http_etag
pdata	ENDS
;	COMDAT pdata
pdata	SEGMENT
$pdata$restore_http_cb DD imagerel restore_http_cb
	DD	imagerel restore_http_cb+85
	DD	imagerel $unwind$restore_http_cb
pdata	ENDS
;	COMDAT pdata
pdata	SEGMENT
$pdata$mg_http_reply DD imagerel $LN5
	DD	imagerel $LN5+179
	DD	imagerel $unwind$mg_http_reply
pdata	ENDS
;	COMDAT pdata
pdata	SEGMENT
$pdata$mg_http_write_chunk DD imagerel $LN5
	DD	imagerel $LN5+100
	DD	imagerel $unwind$mg_http_write_chunk
pdata	ENDS
;	COMDAT pdata
pdata	SEGMENT
$pdata$mg_http_printf_chunk DD imagerel $LN4
	DD	imagerel $LN4+41
	DD	imagerel $unwind$mg_http_printf_chunk
pdata	ENDS
;	COMDAT pdata
pdata	SEGMENT
$pdata$mg_http_vprintf_chunk DD imagerel mg_http_vprintf_chunk
	DD	imagerel mg_http_vprintf_chunk+194
	DD	imagerel $unwind$mg_http_vprintf_chunk
pdata	ENDS
;	COMDAT pdata
pdata	SEGMENT
$pdata$mg_http_parse DD imagerel $LN57
	DD	imagerel $LN57+574
	DD	imagerel $unwind$mg_http_parse
pdata	ENDS
;	COMDAT pdata
pdata	SEGMENT
$pdata$mg_http_parse_headers DD imagerel mg_http_parse_headers
	DD	imagerel mg_http_parse_headers+296
	DD	imagerel $unwind$mg_http_parse_headers
pdata	ENDS
;	COMDAT pdata
pdata	SEGMENT
$pdata$mg_http_get_header DD imagerel $LN15
	DD	imagerel $LN15+125
	DD	imagerel $unwind$mg_http_get_header
pdata	ENDS
;	COMDAT pdata
pdata	SEGMENT
$pdata$mg_url_decode DD imagerel $LN39
	DD	imagerel $LN39+270
	DD	imagerel $unwind$mg_url_decode
pdata	ENDS
;	COMDAT pdata
pdata	SEGMENT
$pdata$mg_http_get_var DD imagerel $LN18
	DD	imagerel $LN18+188
	DD	imagerel $unwind$mg_http_get_var
pdata	ENDS
;	COMDAT pdata
pdata	SEGMENT
$pdata$mg_http_var DD imagerel $LN14
	DD	imagerel $LN14+126
	DD	imagerel $unwind$mg_http_var
pdata	ENDS
;	COMDAT pdata
pdata	SEGMENT
$pdata$mg_http_bauth DD imagerel $LN38
	DD	imagerel $LN38+378
	DD	imagerel $unwind$mg_http_bauth
pdata	ENDS
;	COMDAT pdata
pdata	SEGMENT
$pdata$mg_http_next_multipart DD imagerel $LN56
	DD	imagerel $LN56+613
	DD	imagerel $unwind$mg_http_next_multipart
pdata	ENDS
;	COMDAT pdata
pdata	SEGMENT
$pdata$mg_to_size_t DD imagerel $LN40
	DD	imagerel $LN40+211
	DD	imagerel $unwind$mg_to_size_t
pdata	ENDS
;	COMDAT pdata
pdata	SEGMENT
$pdata$p_mkdir DD imagerel p_mkdir
	DD	imagerel p_mkdir+20
	DD	imagerel $unwind$p_mkdir
pdata	ENDS
;	COMDAT pdata
pdata	SEGMENT
$pdata$p_remove DD imagerel p_remove
	DD	imagerel p_remove+20
	DD	imagerel $unwind$p_remove
pdata	ENDS
;	COMDAT pdata
pdata	SEGMENT
$pdata$p_rename DD imagerel p_rename
	DD	imagerel p_rename+20
	DD	imagerel $unwind$p_rename
pdata	ENDS
;	COMDAT pdata
pdata	SEGMENT
$pdata$p_seek DD imagerel p_seek
	DD	imagerel p_seek+35
	DD	imagerel $unwind$p_seek
pdata	ENDS
;	COMDAT pdata
pdata	SEGMENT
$pdata$p_open DD imagerel p_open
	DD	imagerel p_open+130
	DD	imagerel $unwind$p_open
pdata	ENDS
;	COMDAT pdata
pdata	SEGMENT
$pdata$p_list DD imagerel p_list
	DD	imagerel p_list+109
	DD	imagerel $unwind$p_list
pdata	ENDS
;	COMDAT pdata
pdata	SEGMENT
$pdata$readdir DD imagerel $LN10
	DD	imagerel $LN10+172
	DD	imagerel $unwind$readdir
pdata	ENDS
;	COMDAT pdata
pdata	SEGMENT
$pdata$closedir DD imagerel $LN7
	DD	imagerel $LN7+82
	DD	imagerel $unwind$closedir
pdata	ENDS
;	COMDAT pdata
pdata	SEGMENT
$pdata$opendir DD imagerel $LN12
	DD	imagerel $LN12+205
	DD	imagerel $unwind$opendir
pdata	ENDS
;	COMDAT pdata
pdata	SEGMENT
$pdata$to_wchar DD imagerel to_wchar
	DD	imagerel to_wchar+288
	DD	imagerel $unwind$to_wchar
pdata	ENDS
;	COMDAT pdata
pdata	SEGMENT
$pdata$p_stat DD imagerel p_stat
	DD	imagerel p_stat+270
	DD	imagerel $unwind$p_stat
pdata	ENDS
;	COMDAT pdata
pdata	SEGMENT
$pdata$packed_read DD imagerel packed_read
	DD	imagerel packed_read+75
	DD	imagerel $unwind$packed_read
pdata	ENDS
;	COMDAT pdata
pdata	SEGMENT
$pdata$packed_close DD imagerel packed_close
	DD	imagerel packed_close+20
	DD	imagerel $unwind$packed_close
pdata	ENDS
;	COMDAT pdata
pdata	SEGMENT
$pdata$is_dir_prefix DD imagerel is_dir_prefix
	DD	imagerel is_dir_prefix+98
	DD	imagerel $unwind$is_dir_prefix
pdata	ENDS
;	COMDAT pdata
pdata	SEGMENT
$pdata$mg_file_printf DD imagerel $LN5
	DD	imagerel $LN5+102
	DD	imagerel $unwind$mg_file_printf
pdata	ENDS
;	COMDAT pdata
pdata	SEGMENT
$pdata$mg_file_write DD imagerel $LN10
	DD	imagerel $LN10+209
	DD	imagerel $unwind$mg_file_write
pdata	ENDS
;	COMDAT pdata
pdata	SEGMENT
$pdata$mg_file_read DD imagerel $LN12
	DD	imagerel $LN12+193
	DD	imagerel $unwind$mg_file_read
pdata	ENDS
;	COMDAT pdata
pdata	SEGMENT
$pdata$mg_fs_close DD imagerel $LN6
	DD	imagerel $LN6+38
	DD	imagerel $unwind$mg_fs_close
pdata	ENDS
;	COMDAT pdata
pdata	SEGMENT
$pdata$mg_fs_open DD imagerel $LN6
	DD	imagerel $LN6+106
	DD	imagerel $unwind$mg_fs_open
pdata	ENDS
;	COMDAT pdata
pdata	SEGMENT
$pdata$mg_vxprintf DD imagerel $LN225
	DD	imagerel $LN225+1151
	DD	imagerel $unwind$mg_vxprintf
pdata	ENDS
;	COMDAT pdata
pdata	SEGMENT
$pdata$mg_xprintf DD imagerel $LN4
	DD	imagerel $LN4+37
	DD	imagerel $unwind$mg_xprintf
pdata	ENDS
;	COMDAT pdata
pdata	SEGMENT
$pdata$scpy DD	imagerel scpy
	DD	imagerel scpy+95
	DD	imagerel $unwind$scpy
pdata	ENDS
;	COMDAT pdata
pdata	SEGMENT
$pdata$mg_lld DD imagerel mg_lld
	DD	imagerel mg_lld+232
	DD	imagerel $unwind$mg_lld
pdata	ENDS
;	COMDAT pdata
pdata	SEGMENT
$pdata$mg_dtoa DD imagerel mg_dtoa
	DD	imagerel mg_dtoa+896
	DD	imagerel $unwind$mg_dtoa
pdata	ENDS
;	COMDAT pdata
pdata	SEGMENT
$pdata$mg_error DD imagerel $LN8
	DD	imagerel $LN8+142
	DD	imagerel $unwind$mg_error
pdata	ENDS
;	COMDAT pdata
pdata	SEGMENT
$pdata$mg_call DD imagerel $LN6
	DD	imagerel $LN6+75
	DD	imagerel $unwind$mg_call
pdata	ENDS
;	COMDAT pdata
pdata	SEGMENT
$pdata$mg_resolve DD imagerel $LN10
	DD	imagerel $LN10+161
	DD	imagerel $unwind$mg_resolve
pdata	ENDS
;	COMDAT pdata
pdata	SEGMENT
$pdata$mg_sendnsreq DD imagerel mg_sendnsreq
	DD	imagerel mg_sendnsreq+388
	DD	imagerel $unwind$mg_sendnsreq
pdata	ENDS
;	COMDAT pdata
pdata	SEGMENT
$pdata$mg_dns_send DD imagerel mg_dns_send
	DD	imagerel mg_dns_send+240
	DD	imagerel $unwind$mg_dns_send
pdata	ENDS
;	COMDAT pdata
pdata	SEGMENT
$pdata$dns_cb DD imagerel dns_cb
	DD	imagerel dns_cb+647
	DD	imagerel $unwind$dns_cb
pdata	ENDS
;	COMDAT pdata
pdata	SEGMENT
$pdata$mg_dns_parse DD imagerel $LN48
	DD	imagerel $LN48+503
	DD	imagerel $unwind$mg_dns_parse
pdata	ENDS
;	COMDAT pdata
pdata	SEGMENT
$pdata$mg_dns_parse_rr DD imagerel $LN22
	DD	imagerel $LN22+247
	DD	imagerel $unwind$mg_dns_parse_rr
pdata	ENDS
;	COMDAT pdata
pdata	SEGMENT
$pdata$mg_dns_parse_name DD imagerel mg_dns_parse_name
	DD	imagerel mg_dns_parse_name+35
	DD	imagerel $unwind$mg_dns_parse_name
pdata	ENDS
;	COMDAT pdata
pdata	SEGMENT
$pdata$mg_dns_parse_name_depth DD imagerel mg_dns_parse_name_depth
	DD	imagerel mg_dns_parse_name_depth+346
	DD	imagerel $unwind$mg_dns_parse_name_depth
pdata	ENDS
;	COMDAT pdata
pdata	SEGMENT
$pdata$mg_resolve_cancel DD imagerel $LN23
	DD	imagerel $LN23+100
	DD	imagerel $unwind$mg_resolve_cancel
pdata	ENDS
;	COMDAT pdata
pdata	SEGMENT
$pdata$mg_base64_decode DD imagerel $LN19
	DD	imagerel $LN19+289
	DD	imagerel $unwind$mg_base64_decode
pdata	ENDS
;	COMDAT pdata
pdata	SEGMENT
$pdata$mg_base64_encode DD imagerel $LN13
	DD	imagerel $LN13+148
	DD	imagerel $unwind$mg_base64_encode
pdata	ENDS
;	COMDAT pdata
pdata	SEGMENT
$pdata$mg_base64_final DD imagerel $LN13
	DD	imagerel $LN13+77
	DD	imagerel $unwind$mg_base64_final
pdata	ENDS
;	COMDAT pdata
pdata	SEGMENT
$pdata$mg_base64_update DD imagerel $LN8
	DD	imagerel $LN8+178
	DD	imagerel $unwind$mg_base64_update
pdata	ENDS
;	COMDAT pdata
pdata	SEGMENT
$pdata$sscanf DD imagerel $LN6
	DD	imagerel $LN6+75
	DD	imagerel $unwind$sscanf
pdata	ENDS
;	COMDAT pdata
pdata	SEGMENT
$pdata$_vsscanf_l DD imagerel $LN4
	DD	imagerel $LN4+75
	DD	imagerel $unwind$_vsscanf_l
s_log_func DQ	FLAT:mg_pfn_stdout
s_known_types DQ FLAT:??_C@_04PNIFHPHN@html@
	DQ	0000000000000004H
	DQ	FLAT:??_C@_0BJ@CDMHJEKP@text?1html?$DL?5charset?$DNutf?98@
	DQ	0000000000000018H
	DQ	FLAT:??_C@_03KDICCKGJ@htm@
	DQ	0000000000000003H
	DQ	FLAT:??_C@_0BJ@CDMHJEKP@text?1html?$DL?5charset?$DNutf?98@
	DQ	0000000000000018H
	DQ	FLAT:??_C@_03KFINIEDC@css@
	DQ	0000000000000003H
	DQ	FLAT:??_C@_0BI@MKFMEPPC@text?1css?$DL?5charset?$DNutf?98@
	DQ	0000000000000017H
	DQ	FLAT:??_C@_02EBOMECCO@js@
	DQ	0000000000000002H
	DQ	FLAT:??_C@_0BP@IBHNJOOI@text?1javascript?$DL?5charset?$DNutf?98@
	DQ	000000000000001eH
	DQ	FLAT:??_C@_03MOLNDNH@gif@
	DQ	0000000000000003H
	DQ	FLAT:??_C@_09HADNJIG@image?1gif@
	DQ	0000000000000009H
	DQ	FLAT:??_C@_03NNHBJLDF@png@
	DQ	0000000000000003H
	DQ	FLAT:??_C@_09NGJJJBGE@image?1png@
	DQ	0000000000000009H
	DQ	FLAT:??_C@_03PEGNKCLE@jpg@
	DQ	0000000000000003H
	DQ	FLAT:??_C@_0L@PJKHLKFB@image?1jpeg@
	DQ	000000000000000aH
	DQ	FLAT:??_C@_04OFMADDDJ@jpeg@
	DQ	0000000000000004H
	DQ	FLAT:??_C@_0L@PJKHLKFB@image?1jpeg@
	DQ	000000000000000aH
	DQ	FLAT:??_C@_04GOJHKINL@woff@
	DQ	0000000000000004H
	DQ	FLAT:??_C@_09DPKAPMKA@font?1woff@
	DQ	0000000000000009H
	DQ	FLAT:??_C@_03FKLJBLIF@ttf@
	DQ	0000000000000003H
	DQ	FLAT:??_C@_08LDONFKLE@font?1ttf@
	DQ	0000000000000008H
	DQ	FLAT:??_C@_03NNPBMGBD@svg@
	DQ	0000000000000003H
	DQ	FLAT:??_C@_0O@MMMFMLNF@image?1svg?$CLxml@
	DQ	000000000000000dH
	DQ	FLAT:??_C@_03CLFHJCDC@txt@
	DQ	0000000000000003H
	DQ	FLAT:??_C@_0BK@LKDCPLNF@text?1plain?$DL?5charset?$DNutf?98@
	DQ	0000000000000019H
	DQ	FLAT:??_C@_03LJGCHEIJ@avi@
	DQ	0000000000000003H
	DQ	FLAT:??_C@_0BA@DDNKOHJP@video?1x?9msvideo@
	DQ	000000000000000fH
	DQ	FLAT:??_C@_03NIPKHAHH@csv@
	DQ	0000000000000003H
	DQ	FLAT:??_C@_08CGFGOOIN@text?1csv@
	DQ	0000000000000008H
	DQ	FLAT:??_C@_03GHKEPEMO@doc@
	DQ	0000000000000003H
	DQ	FLAT:??_C@_0BD@DMPJCPHP@application?1msword@
	DQ	0000000000000012H
	DQ	FLAT:??_C@_03JACLIBNI@exe@
	DQ	0000000000000003H
	DQ	FLAT:??_C@_0BJ@JDCJMJCJ@application?1octet?9stream@
	DQ	0000000000000018H
	DQ	FLAT:??_C@_02JIPGGKDE@gz@
	DQ	0000000000000002H
	DQ	FLAT:??_C@_0BB@JGMCIAKF@application?1gzip@
	DQ	0000000000000010H
	DQ	FLAT:??_C@_03DAGBJKHL@ico@
	DQ	0000000000000003H
	DQ	FLAT:??_C@_0N@DKCCOJIM@image?1x?9icon@
	DQ	000000000000000cH
	DQ	FLAT:??_C@_04CLCAKCEI@json@
	DQ	0000000000000004H
	DQ	FLAT:??_C@_0BB@MDJGEIPD@application?1json@
	DQ	0000000000000010H
	DQ	FLAT:??_C@_03CNBJFNFA@mov@
	DQ	0000000000000003H
	DQ	FLAT:??_C@_0BA@MEHPJOJG@video?1quicktime@
	DQ	000000000000000fH
	DQ	FLAT:??_C@_03LHGNACFN@mp3@
	DQ	0000000000000003H
	DQ	FLAT:??_C@_0L@DOFAEOCL@audio?1mpeg@
	DQ	000000000000000aH
	DQ	FLAT:??_C@_03PICMJEJK@mp4@
	DQ	0000000000000003H
	DQ	FLAT:??_C@_09GGJCJIJ@video?1mp4@
	DQ	0000000000000009H
	DQ	FLAT:??_C@_04FHOAOPCJ@mpeg@
	DQ	0000000000000004H
	DQ	FLAT:??_C@_0L@NDKAOLEK@video?1mpeg@
	DQ	000000000000000aH
	DQ	FLAT:??_C@_03MJPNCPKC@pdf@
	DQ	0000000000000003H
	DQ	FLAT:??_C@_0BA@MHMDKHOF@application?1pdf@
	DQ	000000000000000fH
	DQ	FLAT:??_C@_05HNDFGKM@shtml@
	DQ	0000000000000005H
	DQ	FLAT:??_C@_0BJ@CDMHJEKP@text?1html?$DL?5charset?$DNutf?98@
	DQ	0000000000000018H
	DQ	FLAT:??_C@_03KCKOFLPB@tgz@
	DQ	0000000000000003H
	DQ	FLAT:??_C@_0BD@LHPABEHA@application?1tar?9gz@
	DQ	0000000000000012H
	DQ	FLAT:??_C@_03BICDMHKB@wav@
	DQ	0000000000000003H
	DQ	FLAT:??_C@_09KOEADLDC@audio?1wav@
	DQ	0000000000000009H
	DQ	FLAT:??_C@_04BKLLFFLE@webp@
	DQ	0000000000000004H
	DQ	FLAT:??_C@_0L@GNMNMNM@image?1webp@
	DQ	000000000000000aH
	DQ	FLAT:??_C@_03LCAAOJEC@zip@
	DQ	0000000000000003H
	DQ	FLAT:??_C@_0BA@LMDOGBAF@application?1zip@
	DQ	000000000000000fH
	DQ	FLAT:??_C@_03FOICNDPP@3gp@
	DQ	0000000000000003H
	DQ	FLAT:??_C@_0L@IGCDBAML@video?13gpp@
	DQ	000000000000000aH
	DQ	0000000000000000H
	DQ	0000000000000000H
_DATA	ENDS
;	COMDAT xdata
xdata	SEGMENT
$unwind$_vsscanf_l DD 060f01H
	DD	09640fH
	DD	08340fH
	DD	0700b520fH
xdata	ENDS
;	COMDAT xdata
xdata	SEGMENT
$unwind$sscanf DD 041601H
	DD	070125216H
	DD	030106011H
xdata	ENDS
;	COMDAT xdata
xdata	SEGMENT
$unwind$mg_base64_update DD 020601H
	DD	030023206H
xdata	ENDS
;	COMDAT xdata
xdata	SEGMENT
$unwind$mg_base64_final DD 040a01H
	DD	06340aH
	DD	07006320aH
xdata	ENDS
;	COMDAT xdata
xdata	SEGMENT
$unwind$mg_base64_encode DD 081401H
	DD	086414H
	DD	075414H
	DD	063414H
	DD	070103214H
xdata	ENDS
;	COMDAT xdata
xdata	SEGMENT
$unwind$mg_base64_decode DD 081401H
	DD	086414H
	DD	075414H
	DD	063414H
	DD	070103214H
xdata	ENDS
;	COMDAT xdata
xdata	SEGMENT
$unwind$mg_resolve_cancel DD 060f01H
	DD	07640fH
	DD	06340fH
	DD	0700b320fH
xdata	ENDS
;	COMDAT xdata
xdata	SEGMENT
$unwind$mg_dns_parse_name_depth DD 0c1c01H
	DD	010641cH
	DD	0f541cH
	DD	0e341cH
	DD	0f018721cH
	DD	0d014e016H
	DD	07010c012H
xdata	ENDS
;	COMDAT xdata
xdata	SEGMENT
$unwind$mg_dns_parse_name DD 010401H
	DD	08204H
xdata	ENDS
;	COMDAT xdata
xdata	SEGMENT
$unwind$mg_dns_parse_rr DD 0a1901H
	DD	0d7419H
	DD	0c6419H
	DD	0b5419H
	DD	0a3419H
	DD	0e0157219H
xdata	ENDS
;	COMDAT xdata
xdata	SEGMENT
$unwind$mg_dns_parse DD 0c1c01H
	DD	011641cH
	DD	010541cH
	DD	0f341cH
	DD	0f018721cH
	DD	0d014e016H
	DD	07010c012H
xdata	ENDS
;	COMDAT xdata
xdata	SEGMENT
$unwind$dns_cb DD 0b1b01H
	DD	030641bH
	DD	02f541bH
	DD	02e341bH
	DD	02a011bH
	DD	0e012f014H
	DD	07010H
xdata	ENDS
;	COMDAT xdata
xdata	SEGMENT
$unwind$mg_dns_send DD 0b1b01H
	DD	02c641bH
	DD	02b541bH
	DD	02a341bH
	DD	026011bH
	DD	0e012f014H
	DD	07010H
xdata	ENDS
;	COMDAT xdata
xdata	SEGMENT
$unwind$mg_sendnsreq DD 0c1d01H
	DD	0d741dH
	DD	0c641dH
	DD	0b541dH
	DD	0a341dH
	DD	0f019521dH
	DD	0c015e017H
xdata	ENDS
;	COMDAT xdata
xdata	SEGMENT
$unwind$mg_resolve DD 061201H
	DD	056812H
	DD	0e340aH
	DD	07006b20aH
xdata	ENDS
;	COMDAT xdata
xdata	SEGMENT
$unwind$mg_call DD 060f01H
	DD	07640fH
	DD	06340fH
	DD	0700b320fH
xdata	ENDS
;	COMDAT xdata
xdata	SEGMENT
$unwind$mg_error DD 021401H
	DD	03010d214H
xdata	ENDS
;	COMDAT xdata
xdata	SEGMENT
$unwind$mg_dtoa DD 081b01H
	DD	011e41bH
	DD	010741bH
	DD	0e641bH
	DD	05014b21bH
xdata	ENDS
;	COMDAT xdata
xdata	SEGMENT
$unwind$mg_lld DD 040a01H
	DD	02740aH
	DD	013405H
xdata	ENDS
;	COMDAT xdata
xdata	SEGMENT
$unwind$scpy DD	0a1901H
	DD	097419H
	DD	086419H
	DD	075419H
	DD	063419H
	DD	0e0153219H
xdata	ENDS
;	COMDAT xdata
xdata	SEGMENT
$unwind$mg_xprintf DD 010f01H
	DD	0620fH
xdata	ENDS
;	COMDAT xdata
xdata	SEGMENT
$unwind$mg_vxprintf DD 0a2501H
	DD	0173425H
	DD	0f01ed225H
	DD	0d01ae01cH
	DD	07016c018H
	DD	050146015H
xdata	ENDS
;	COMDAT xdata
xdata	SEGMENT
$unwind$mg_fs_open DD 081401H
	DD	086414H
	DD	075414H
	DD	063414H
	DD	070103214H
xdata	ENDS
;	COMDAT xdata
xdata	SEGMENT
$unwind$mg_fs_close DD 020a01H
	DD	03006320aH
xdata	ENDS
;	COMDAT xdata
xdata	SEGMENT
$unwind$mg_file_read DD 081401H
	DD	096414H
	DD	085414H
	DD	073414H
	DD	070103214H
xdata	ENDS
;	COMDAT xdata
xdata	SEGMENT
$unwind$mg_file_write DD 0b1b01H
	DD	02e641bH
	DD	02d541bH
	DD	02c341bH
	DD	028011bH
	DD	0e012f014H
	DD	07010H
xdata	ENDS
;	COMDAT xdata
xdata	SEGMENT
$unwind$mg_file_printf DD 041201H
	DD	0700e5212H
	DD	0300c600dH
xdata	ENDS
;	COMDAT xdata
xdata	SEGMENT
$unwind$is_dir_prefix DD 060f01H
	DD	07640fH
	DD	06340fH
	DD	0700b320fH
xdata	ENDS
;	COMDAT xdata
xdata	SEGMENT
$unwind$packed_close DD 010401H
	DD	04204H
xdata	ENDS
;	COMDAT xdata
xdata	SEGMENT
$unwind$packed_read DD 040a01H
	DD	06340aH
	DD	07006320aH
xdata	ENDS
;	COMDAT xdata
xdata	SEGMENT
$unwind$p_stat DD 071201H
	DD	0536412H
	DD	0523412H
	DD	0500112H
	DD	0700bH
xdata	ENDS
;	COMDAT xdata
xdata	SEGMENT
$unwind$to_wchar DD 071301H
	DD	08f7413H
	DD	08e3413H
	DD	08c0113H
	DD	0e00cH
xdata	ENDS
;	COMDAT xdata
xdata	SEGMENT
$unwind$opendir DD 071201H
	DD	0496412H
	DD	0483412H
	DD	0460112H
	DD	0700bH
xdata	ENDS
;	COMDAT xdata
xdata	SEGMENT
$unwind$closedir DD 040a01H
	DD	06340aH
	DD	07006320aH
xdata	ENDS
;	COMDAT xdata
xdata	SEGMENT
$unwind$readdir DD 060f01H
	DD	0b640fH
	DD	0a340fH
	DD	0700b720fH
xdata	ENDS
;	COMDAT xdata
xdata	SEGMENT
$unwind$p_list DD 060f01H
	DD	07640fH
	DD	06340fH
	DD	0700b320fH
xdata	ENDS
;	COMDAT xdata
xdata	SEGMENT
$unwind$p_open DD 030901H
	DD	04c0109H
	DD	03002H
xdata	ENDS
;	COMDAT xdata
xdata	SEGMENT
$unwind$p_seek DD 020601H
	DD	030023206H
xdata	ENDS
;	COMDAT xdata
xdata	SEGMENT
$unwind$p_rename DD 010401H
	DD	04204H
xdata	ENDS
;	COMDAT xdata
xdata	SEGMENT
$unwind$p_remove DD 010401H
	DD	04204H
xdata	ENDS
;	COMDAT xdata
xdata	SEGMENT
$unwind$p_mkdir DD 010401H
	DD	04204H
xdata	ENDS
;	COMDAT xdata
xdata	SEGMENT
$unwind$mg_to_size_t DD 081301H
	DD	04e413H
	DD	03740fH
	DD	02640bH
	DD	013407H
xdata	ENDS
;	COMDAT xdata
xdata	SEGMENT
$unwind$mg_http_next_multipart DD 0a1a01H
	DD	01b341aH
	DD	0f010f21aH
	DD	0d00ce00eH
	DD	07008c00aH
	DD	050066007H
xdata	ENDS
;	COMDAT xdata
xdata	SEGMENT
$unwind$mg_http_bauth DD 0c2001H
	DD	0d6420H
	DD	0b5420H
	DD	0a3420H
	DD	0f01c3220H
	DD	0d018e01aH
	DD	07014c016H
xdata	ENDS
;	COMDAT xdata
xdata	SEGMENT
$unwind$mg_http_var DD 060f01H
	DD	0b640fH
	DD	0a340fH
	DD	0700b720fH
xdata	ENDS
;	COMDAT xdata
xdata	SEGMENT
$unwind$mg_http_get_var DD 040a01H
	DD	0e340aH
	DD	07006b20aH
xdata	ENDS
;	COMDAT xdata
xdata	SEGMENT
$unwind$mg_url_decode DD 0c1c01H
	DD	0c641cH
	DD	0b541cH
	DD	0a341cH
	DD	0f018321cH
	DD	0d014e016H
	DD	07010c012H
xdata	ENDS
;	COMDAT xdata
xdata	SEGMENT
$unwind$mg_http_get_header DD 0a1901H
	DD	097419H
	DD	086419H
	DD	075419H
	DD	063419H
	DD	0e0153219H
xdata	ENDS
;	COMDAT xdata
xdata	SEGMENT
$unwind$mg_http_parse_headers DD 081401H
	DD	0c6414H
	DD	0b5414H
	DD	0a3414H
	DD	070107214H
xdata	ENDS
;	COMDAT xdata
xdata	SEGMENT
$unwind$mg_http_parse DD 0c1c01H
	DD	0e641cH
	DD	0d541cH
	DD	0c341cH
	DD	0f018521cH
	DD	0d014e016H
	DD	07010c012H
xdata	ENDS
;	COMDAT xdata
xdata	SEGMENT
$unwind$mg_http_vprintf_chunk DD 0a1901H
	DD	09e419H
	DD	087419H
	DD	076419H
	DD	063419H
	DD	0f0153219H
xdata	ENDS
;	COMDAT xdata
xdata	SEGMENT
$unwind$mg_http_printf_chunk DD 011301H
	DD	06213H
xdata	ENDS
;	COMDAT xdata
xdata	SEGMENT
$unwind$mg_http_write_chunk DD 060f01H
	DD	07640fH
	DD	06340fH
	DD	0700b320fH
xdata	ENDS
;	COMDAT xdata
xdata	SEGMENT
$unwind$mg_http_reply DD 040c01H
	DD	07008720cH
	DD	030066007H
xdata	ENDS
;	COMDAT xdata
xdata	SEGMENT
$unwind$restore_http_cb DD 040a01H
	DD	06340aH
	DD	07006320aH
xdata	ENDS
;	COMDAT xdata
xdata	SEGMENT
$unwind$mg_http_etag DD 020601H
	DD	030025206H
xdata	ENDS
;	COMDAT xdata
xdata	SEGMENT
$unwind$static_cb DD 060f01H
	DD	07640fH
	DD	06340fH
	DD	0700b320fH
xdata	ENDS
;	COMDAT xdata
xdata	SEGMENT
$unwind$guess_content_type DD 061201H
	DD	0117412H
	DD	0103412H
	DD	0500bd212H
xdata	ENDS
;	COMDAT xdata
xdata	SEGMENT
$unwind$getrange DD 0a1b01H
	DD	0de41bH
	DD	0c741bH
	DD	0b641bH
	DD	0a341bH
	DD	05014721bH
xdata	ENDS
;	COMDAT xdata
xdata	SEGMENT
$unwind$mg_http_serve_file DD 0b2401H
	DD	0543424H
	DD	04c0124H
	DD	0e013f015H
	DD	0c00fd011H
	DD	0600c700dH
	DD	0500bH
xdata	ENDS
;	COMDAT xdata
xdata	SEGMENT
$unwind$printdirentry DD 091b01H
	DD	03e341bH
	DD	038011bH
	DD	0e00af00cH
	DD	060077008H
	DD	05006H
xdata	ENDS
;	COMDAT xdata
xdata	SEGMENT
$unwind$listdir DD 0f6f01H
	DD	019686fH
	DD	03bc426H
	DD	03a7426H
	DD	0396426H
	DD	0383426H
	DD	0340126H
	DD	0e016f018H
	DD	05014H
xdata	ENDS
;	COMDAT xdata
xdata	SEGMENT
$unwind$uri_to_path2 DD 0c1c01H
	DD	0e641cH
	DD	0d541cH
	DD	0c341cH
	DD	0f018521cH
	DD	0d014e016H
	DD	07010c012H
xdata	ENDS
;	COMDAT xdata
xdata	SEGMENT
$unwind$uri_to_path DD 0114901H
	DD	0a8849H
	DD	0b7844H
	DD	0c683dH
	DD	020741fH
	DD	01f641fH
	DD	01e341fH
	DD	01a011fH
	DD	0c012e014H
	DD	05010H
xdata	ENDS
;	COMDAT xdata
xdata	SEGMENT
$unwind$mg_http_serve_dir DD 091701H
	DD	0306417H
	DD	02f5417H
	DD	02e3417H
	DD	02c0117H
	DD	07010H
xdata	ENDS
;	COMDAT xdata
xdata	SEGMENT
$unwind$mg_url_encode DD 081401H
	DD	086414H
	DD	075414H
	DD	063414H
	DD	070103214H
xdata	ENDS
;	COMDAT xdata
xdata	SEGMENT
$unwind$mg_http_creds DD 0b1f01H
	DD	032741fH
	DD	031641fH
	DD	030341fH
	DD	02c011fH
	DD	0e012f014H
	DD	05010H
xdata	ENDS
;	COMDAT xdata
xdata	SEGMENT
$unwind$stripquotes DD 010401H
	DD	02204H
xdata	ENDS
;	COMDAT xdata
xdata	SEGMENT
$unwind$mg_http_get_header_var DD 0c1c01H
	DD	011641cH
	DD	010541cH
	DD	0f341cH
	DD	0f018721cH
	DD	0d014e016H
	DD	07010c012H
xdata	ENDS
;	COMDAT xdata
xdata	SEGMENT
$unwind$mg_http_match_uri DD 010401H
	DD	08204H
xdata	ENDS
;	COMDAT xdata
xdata	SEGMENT
$unwind$mg_http_upload DD 0a1601H
	DD	0125416H
	DD	0103416H
	DD	0f0129216H
	DD	0d00ee010H
	DD	0600b700cH
xdata	ENDS
;	COMDAT xdata
xdata	SEGMENT
$unwind$skip_chunk DD 0a1901H
	DD	09e419H
	DD	087419H
	DD	076419H
	DD	063419H
	DD	0f0153219H
xdata	ENDS
;	COMDAT xdata
xdata	SEGMENT
$unwind$http_cb DD 0b2701H
	DD	0983427H
	DD	08e0127H
	DD	0e017f019H
	DD	0c013d015H
	DD	060107011H
	DD	0500fH
xdata	ENDS
;	COMDAT xdata
xdata	SEGMENT
$unwind$mg_hfn DD 040a01H
	DD	0a340aH
	DD	07006720aH
xdata	ENDS
;	COMDAT xdata
xdata	SEGMENT
$unwind$mg_hello DD 030b01H
	DD	014010bH
	DD	03004H
xdata	ENDS
;	COMDAT xdata
xdata	SEGMENT
$unwind$mg_http_connect DD 010401H
	DD	04204H
xdata	ENDS
;	COMDAT xdata
xdata	SEGMENT
$unwind$mg_http_listen DD 010401H
	DD	04204H
xdata	ENDS
;	COMDAT voltbl
voltbl	SEGMENT
_volmd	DB	04fH
	DB	0c5H
voltbl	ENDS
;	COMDAT xdata
xdata	SEGMENT
$unwind$mg_iobuf_resize DD 081401H
	DD	086414H
	DD	075414H
	DD	063414H
	DD	070103214H
xdata	ENDS
;	COMDAT xdata
xdata	SEGMENT
$unwind$mg_iobuf_add DD 0a1801H
	DD	0a6418H
	DD	095418H
	DD	083418H
	DD	0f0143218H
	DD	07010e012H
xdata	ENDS
;	COMDAT voltbl
voltbl	SEGMENT
_volmd	DB	060H
voltbl	ENDS
;	COMDAT xdata
xdata	SEGMENT
$unwind$mg_iobuf_del DD 040a01H
	DD	06340aH
	DD	07006320aH
xdata	ENDS
;	COMDAT xdata
xdata	SEGMENT
$unwind$mg_pass_string DD 0a1801H
	DD	0a6418H
	DD	095418H
	DD	083418H
	DD	0f0143218H
	DD	07010e012H
xdata	ENDS
;	COMDAT xdata
xdata	SEGMENT
$unwind$mg_atod DD 050b01H
	DD	05640bH
	DD	02340bH
	DD	0700bH
xdata	ENDS
;	COMDAT xdata
xdata	SEGMENT
$unwind$mg_json_next DD 0a1c01H
	DD	010341cH
	DD	0f015521cH
	DD	0d011e013H
	DD	0700dc00fH
	DD	0500b600cH
xdata	ENDS
;	COMDAT xdata
xdata	SEGMENT
$unwind$mg_json_get DD 091501H
	DD	0f011a215H
	DD	0d00de00fH
	DD	07009c00bH
	DD	050076008H
	DD	03006H
xdata	ENDS
;	COMDAT xdata
xdata	SEGMENT
$unwind$mg_json_get_num DD 061401H
	DD	0a6414H
	DD	083414H
	DD	070105214H
xdata	ENDS
;	COMDAT xdata
xdata	SEGMENT
$unwind$mg_json_get_bool DD 061001H
	DD	096410H
	DD	083410H
	DD	0700c5210H
xdata	ENDS
;	COMDAT xdata
xdata	SEGMENT
$unwind$mg_json_unescape DD 0a1901H
	DD	09e419H
	DD	087419H
	DD	076419H
	DD	063419H
	DD	0f0153219H
xdata	ENDS
;	COMDAT xdata
xdata	SEGMENT
$unwind$mg_json_get_str DD 081301H
	DD	0c5413H
	DD	0b3413H
	DD	0e00f5213H
	DD	0600c700dH
xdata	ENDS
;	COMDAT xdata
xdata	SEGMENT
$unwind$mg_json_get_b64 DD 0a1801H
	DD	0d6418H
	DD	0c5418H
	DD	0b3418H
	DD	0f0145218H
	DD	07010e012H
xdata	ENDS
;	COMDAT xdata
xdata	SEGMENT
$unwind$mg_json_get_hex DD 081301H
	DD	0c5413H
	DD	0b3413H
	DD	0e00f5213H
	DD	0600c700dH
xdata	ENDS
;	COMDAT xdata
xdata	SEGMENT
$unwind$mg_json_get_long DD 020c01H
	DD	03008520cH
xdata	ENDS
;	COMDAT xdata
xdata	SEGMENT
$unwind$logs DD	061401H
	DD	076414H
	DD	063414H
	DD	070103214H
xdata	ENDS
;	COMDAT xdata
xdata	SEGMENT
$unwind$mg_log_prefix DD 0a1901H
	DD	0137419H
	DD	0126419H
	DD	0115419H
	DD	0103419H
	DD	0e015d219H
xdata	ENDS
;	COMDAT xdata
xdata	SEGMENT
$unwind$mg_log DD 011701H
	DD	06217H
xdata	ENDS
;	COMDAT xdata
xdata	SEGMENT
$unwind$mg_hexdump DD 081401H
	DD	0a6414H
	DD	095414H
	DD	083414H
	DD	070105214H
xdata	ENDS
;	COMDAT xdata
xdata	SEGMENT
$unwind$mg_md5_transform DD 091501H
	DD	0f0114215H
	DD	0d00de00fH
	DD	07009c00bH
	DD	050076008H
	DD	03006H
xdata	ENDS
;	COMDAT xdata
xdata	SEGMENT
$unwind$mg_md5_update DD 0a1901H
	DD	097419H
	DD	086419H
	DD	075419H
	DD	063419H
	DD	0e0153219H
xdata	ENDS
;	COMDAT xdata
xdata	SEGMENT
$unwind$mg_md5_final DD 060f01H
	DD	07640fH
	DD	06340fH
	DD	0700b320fH
xdata	ENDS
;	COMDAT xdata
xdata	SEGMENT
$unwind$mg_mqtt_send_header DD 010401H
	DD	06204H
xdata	ENDS
;	COMDAT xdata
xdata	SEGMENT
$unwind$mg_send_u16 DD 010901H
	DD	04209H
xdata	ENDS
;	COMDAT xdata
xdata	SEGMENT
$unwind$mg_send_u32 DD 010801H
	DD	04208H
xdata	ENDS
;	COMDAT xdata
xdata	SEGMENT
$unwind$decode_varint DD 020501H
	DD	013405H
xdata	ENDS
;	COMDAT xdata
xdata	SEGMENT
$unwind$get_properties_length DD 010401H
	DD	04204H
xdata	ENDS
;	COMDAT xdata
xdata	SEGMENT
$unwind$get_props_size DD 010401H
	DD	04204H
xdata	ENDS
;	COMDAT xdata
xdata	SEGMENT
$unwind$mg_send_mqtt_properties DD 081301H
	DD	0c3413H
	DD	0e00c5213H
	DD	07008d00aH
	DD	050066007H
xdata	ENDS
;	COMDAT xdata
xdata	SEGMENT
$unwind$mg_mqtt_next_prop DD 020601H
	DD	030023206H
xdata	ENDS
;	COMDAT xdata
xdata	SEGMENT
$unwind$mg_mqtt_login DD 0a1701H
	DD	0143417H
	DD	0f0109217H
	DD	0d00ce00eH
	DD	07008c00aH
	DD	050066007H
xdata	ENDS
;	COMDAT xdata
xdata	SEGMENT
$unwind$mg_mqtt_pub DD 0a1601H
	DD	0e5416H
	DD	0d3416H
	DD	0f0125216H
	DD	0d00ee010H
	DD	0600b700cH
xdata	ENDS
;	COMDAT xdata
xdata	SEGMENT
$unwind$mg_mqtt_sub DD 060f01H
	DD	09640fH
	DD	08340fH
	DD	0700b320fH
xdata	ENDS
;	COMDAT xdata
xdata	SEGMENT
$unwind$mg_mqtt_parse DD 0a1801H
	DD	0a6418H
	DD	095418H
	DD	083418H
	DD	0f0143218H
	DD	07010e012H
xdata	ENDS
;	COMDAT xdata
xdata	SEGMENT
$unwind$mqtt_cb DD 082101H
	DD	0166421H
	DD	0143421H
	DD	0f017f221H
	DD	050147015H
xdata	ENDS
;	COMDAT xdata
xdata	SEGMENT
$unwind$mg_mqtt_disconnect DD 060f01H
	DD	08640fH
	DD	07340fH
	DD	0700b320fH
xdata	ENDS
;	COMDAT xdata
xdata	SEGMENT
$unwind$mg_mqtt_connect DD 050d01H
	DD	016340dH
	DD	014010dH
	DD	07006H
xdata	ENDS
;	COMDAT xdata
xdata	SEGMENT
$unwind$mg_mqtt_listen DD 020601H
	DD	030023206H
xdata	ENDS
;	COMDAT xdata
xdata	SEGMENT
$unwind$mg_vprintf DD 040a01H
	DD	06340aH
	DD	07006320aH
xdata	ENDS
;	COMDAT xdata
xdata	SEGMENT
$unwind$mg_printf DD 011301H
	DD	06213H
xdata	ENDS
;	COMDAT xdata
xdata	SEGMENT
$unwind$mg_atonl DD 020601H
	DD	030023206H
xdata	ENDS
;	COMDAT xdata
xdata	SEGMENT
$unwind$mg_v4mapped DD 010401H
	DD	06204H
xdata	ENDS
;	COMDAT xdata
xdata	SEGMENT
$unwind$mg_aton6 DD 0c1c01H
	DD	0e641cH
	DD	0d541cH
	DD	0c341cH
	DD	0f018521cH
	DD	0d014e016H
	DD	07010c012H
xdata	ENDS
;	COMDAT xdata
xdata	SEGMENT
$unwind$mg_aton DD 060f01H
	DD	09640fH
	DD	08340fH
	DD	0700b520fH
xdata	ENDS
;	COMDAT xdata
xdata	SEGMENT
$unwind$mg_alloc_conn DD 020601H
	DD	030023206H
xdata	ENDS
;	COMDAT voltbl
voltbl	SEGMENT
_volmd	DB	0b9H
voltbl	ENDS
;	COMDAT xdata
xdata	SEGMENT
$unwind$mg_close_conn DD 020601H
	DD	030023206H
xdata	ENDS
;	COMDAT xdata
xdata	SEGMENT
$unwind$mg_connect DD 0a1901H
	DD	097419H
	DD	086419H
	DD	075419H
	DD	063419H
	DD	0e0153219H
xdata	ENDS
;	COMDAT xdata
xdata	SEGMENT
$unwind$mg_listen DD 0a1901H
	DD	097419H
	DD	086419H
	DD	075419H
	DD	063419H
	DD	0e0153219H
xdata	ENDS
;	COMDAT xdata
xdata	SEGMENT
$unwind$mg_wrapfd DD 060f01H
	DD	07640fH
	DD	06340fH
	DD	0700b320fH
xdata	ENDS
;	COMDAT xdata
xdata	SEGMENT
$unwind$mg_timer_add DD 081401H
	DD	086414H
	DD	075414H
	DD	063414H
	DD	070103214H
xdata	ENDS
;	COMDAT xdata
xdata	SEGMENT
$unwind$mg_io_recv DD 040a01H
	DD	06340aH
	DD	07006320aH
xdata	ENDS
;	COMDAT xdata
xdata	SEGMENT
$unwind$mg_mgr_free DD 040a01H
	DD	06340aH
	DD	07006320aH
xdata	ENDS
;	COMDAT xdata
xdata	SEGMENT
$unwind$mg_mgr_init DD 030901H
	DD	0380109H
	DD	03002H
xdata	ENDS
;	COMDAT voltbl
voltbl	SEGMENT
_volmd	DB	05dH
	DB	067H
	DB	06cH
	DB	077H
voltbl	ENDS
;	COMDAT xdata
xdata	SEGMENT
$unwind$mg_queue_vprintf DD 081401H
	DD	086414H
	DD	075414H
	DD	063414H
	DD	070103214H
xdata	ENDS
;	COMDAT xdata
xdata	SEGMENT
$unwind$mg_queue_printf DD 011301H
	DD	06213H
xdata	ENDS
;	COMDAT xdata
xdata	SEGMENT
$unwind$mg_pfn_iobuf_private DD 040a01H
	DD	06340aH
	DD	07006320aH
xdata	ENDS
;	COMDAT xdata
xdata	SEGMENT
$unwind$mg_vsnprintf DD 040c01H
	DD	0a340cH
	DD	07008720cH
xdata	ENDS
;	COMDAT xdata
xdata	SEGMENT
$unwind$mg_snprintf DD 010f01H
	DD	0620fH
xdata	ENDS
;	COMDAT xdata
xdata	SEGMENT
$unwind$mg_vmprintf DD 010701H
	DD	08207H
xdata	ENDS
;	COMDAT xdata
xdata	SEGMENT
$unwind$mg_mprintf DD 011701H
	DD	06217H
xdata	ENDS
;	COMDAT xdata
xdata	SEGMENT
$unwind$print_ip4 DD 010401H
	DD	08204H
xdata	ENDS
;	COMDAT xdata
xdata	SEGMENT
$unwind$print_ip6 DD 0a1e01H
	DD	016341eH
	DD	0f01ab21eH
	DD	0d016e018H
	DD	07012c014H
	DD	050106011H
xdata	ENDS
;	COMDAT xdata
xdata	SEGMENT
$unwind$mg_print_ip_port DD 010401H
	DD	06204H
xdata	ENDS
;	COMDAT xdata
xdata	SEGMENT
$unwind$mg_print_mac DD 040a01H
	DD	0c340aH
	DD	07006920aH
xdata	ENDS
;	COMDAT xdata
xdata	SEGMENT
$unwind$qcpy DD	0c1d01H
	DD	0b741dH
	DD	0a641dH
	DD	09541dH
	DD	08341dH
	DD	0f019321dH
	DD	0c015e017H
xdata	ENDS
;	COMDAT xdata
xdata	SEGMENT
$unwind$bcpy DD	0a1901H
	DD	0f3419H
	DD	0f0155219H
	DD	0d011e013H
	DD	0700dc00fH
	DD	0500b600cH
xdata	ENDS
;	COMDAT xdata
xdata	SEGMENT
$unwind$mg_print_hex DD 0a1801H
	DD	0a6418H
	DD	095418H
	DD	083418H
	DD	0f0143218H
	DD	07010e012H
xdata	ENDS
;	COMDAT voltbl
voltbl	SEGMENT
_volmd	DB	07H
	DB	0fH
voltbl	ENDS
;	COMDAT voltbl
voltbl	SEGMENT
_volmd	DB	00H
	DB	05H
voltbl	ENDS
;	COMDAT voltbl
voltbl	SEGMENT
_volmd	DB	00H
	DB	0bH
voltbl	ENDS
;	COMDAT voltbl
voltbl	SEGMENT
_volmd	DB	05H
	DB	0cH
	DB	01dH
	DB	031H
	DB	041H
	DB	045H
	DB	04eH
	DB	058H
	DB	062H
	DB	066H
	DB	06aH
	DB	06eH
	DB	07eH
	DB	082H
	DB	092H
voltbl	ENDS
;	COMDAT xdata
xdata	SEGMENT
$unwind$mg_queue_book DD 020501H
	DD	013405H
xdata	ENDS
;	COMDAT voltbl
voltbl	SEGMENT
_volmd	DB	00H
	DB	07H
	DB	018H
	DB	01cH
	DB	02cH
	DB	030H
	DB	034H
	DB	03dH
	DB	041H
	DB	051H
voltbl	ENDS
;	COMDAT voltbl
voltbl	SEGMENT
_volmd	DB	00H
	DB	0bH
	DB	010H
	DB	01bH
voltbl	ENDS
;	COMDAT voltbl
voltbl	SEGMENT
_volmd	DB	00H
	DB	0bH
voltbl	ENDS
;	COMDAT xdata
xdata	SEGMENT
$unwind$mg_rpc_add DD 0a1901H
	DD	0d7419H
	DD	0c6419H
	DD	0b5419H
	DD	0a3419H
	DD	0e0157219H
xdata	ENDS
;	COMDAT xdata
xdata	SEGMENT
$unwind$mg_rpc_del DD 060f01H
	DD	07640fH
	DD	06340fH
	DD	0700b320fH
xdata	ENDS
;	COMDAT xdata
xdata	SEGMENT
$unwind$mg_rpc_call DD 060f01H
	DD	0d640fH
	DD	0c340fH
	DD	0700b920fH
xdata	ENDS
;	COMDAT xdata
xdata	SEGMENT
$unwind$mg_rpc_process DD 040d01H
	DD	0b340dH
	DD	05006720dH
xdata	ENDS
;	COMDAT xdata
xdata	SEGMENT
$unwind$mg_rpc_vok DD 061001H
	DD	0126410H
	DD	0113410H
	DD	0700cd210H
xdata	ENDS
;	COMDAT xdata
xdata	SEGMENT
$unwind$mg_rpc_ok DD 011301H
	DD	06213H
xdata	ENDS
;	COMDAT xdata
xdata	SEGMENT
$unwind$mg_rpc_verr DD 0a1b01H
	DD	017641bH
	DD	016541bH
	DD	015341bH
	DD	0e014f21bH
	DD	07010c012H
xdata	ENDS
;	COMDAT xdata
xdata	SEGMENT
$unwind$mg_rpc_err DD 010f01H
	DD	0620fH
xdata	ENDS
;	COMDAT xdata
xdata	SEGMENT
$unwind$print_methods DD 0a1901H
	DD	0d7419H
	DD	0c6419H
	DD	0b5419H
	DD	0a3419H
	DD	0e0157219H
xdata	ENDS
;	COMDAT xdata
xdata	SEGMENT
$unwind$mg_sha1_transform DD 091501H
	DD	0f0118215H
	DD	0d00de00fH
	DD	07009c00bH
	DD	050076008H
	DD	03006H
xdata	ENDS
;	COMDAT xdata
xdata	SEGMENT
$unwind$mg_sha1_update DD 0a1901H
	DD	097419H
	DD	086419H
	DD	075419H
	DD	063419H
	DD	0e0153219H
xdata	ENDS
;	COMDAT xdata
xdata	SEGMENT
$unwind$mg_sha1_final DD 060c01H
	DD	08340cH
	DD	07008320cH
	DD	050066007H
xdata	ENDS
;	COMDAT xdata
xdata	SEGMENT
$unwind$mg_sha256_chunk DD 0a1401H
	DD	0230114H
	DD	0e00bf00dH
	DD	0c007d009H
	DD	060047005H
	DD	030025003H
xdata	ENDS
;	COMDAT xdata
xdata	SEGMENT
$unwind$mg_sha256_update DD 081901H
	DD	086419H
	DD	075419H
	DD	063419H
	DD	070153219H
xdata	ENDS
;	COMDAT xdata
xdata	SEGMENT
$unwind$mg_sha256_final DD 040a01H
	DD	06340aH
	DD	07006320aH
xdata	ENDS
;	COMDAT xdata
xdata	SEGMENT
$unwind$mg_hmac_sha256 DD 0b1f01H
	DD	030741fH
	DD	02f641fH
	DD	02e341fH
	DD	02a011fH
	DD	0c012e014H
	DD	05010H
xdata	ENDS
;	COMDAT xdata
xdata	SEGMENT
$unwind$mg_sntp_parse DD 0a1901H
	DD	0b7419H
	DD	0a6419H
	DD	095419H
	DD	083419H
	DD	0e0155219H
xdata	ENDS
;	COMDAT xdata
xdata	SEGMENT
$unwind$sntp_cb DD 040a01H
	DD	06340aH
	DD	07006320aH
xdata	ENDS
;	COMDAT xdata
xdata	SEGMENT
$unwind$mg_sntp_request DD 020601H
	DD	030029206H
xdata	ENDS
;	COMDAT xdata
xdata	SEGMENT
$unwind$mg_sntp_connect DD 010401H
	DD	04204H
xdata	ENDS
;	COMDAT xdata
xdata	SEGMENT
$unwind$setlocaddr DD 020601H
	DD	030025206H
xdata	ENDS
;	COMDAT xdata
xdata	SEGMENT
$unwind$iolog DD 061e01H
	DD	0f641eH
	DD	0e341eH
	DD	0701ab21eH
xdata	ENDS
;	COMDAT xdata
xdata	SEGMENT
$unwind$mg_io_send DD 040c01H
	DD	0a340cH
	DD	07008720cH
xdata	ENDS
;	COMDAT xdata
xdata	SEGMENT
$unwind$mg_send DD 060f01H
	DD	0b640fH
	DD	0a340fH
	DD	0700b720fH
xdata	ENDS
;	COMDAT xdata
xdata	SEGMENT
$unwind$mg_set_non_blocking_mode DD 010401H
	DD	04204H
xdata	ENDS
;	COMDAT xdata
xdata	SEGMENT
$unwind$mg_open_listener DD 0c1c01H
	DD	013641cH
	DD	012541cH
	DD	011341cH
	DD	0f018921cH
	DD	0d014e016H
	DD	07010c012H
xdata	ENDS
;	COMDAT xdata
xdata	SEGMENT
$unwind$recv_raw DD 020801H
	DD	030047208H
xdata	ENDS
;	COMDAT xdata
xdata	SEGMENT
$unwind$ioalloc DD 040a01H
	DD	06340aH
	DD	07006320aH
xdata	ENDS
;	COMDAT xdata
xdata	SEGMENT
$unwind$read_conn DD 0a1901H
	DD	0f7419H
	DD	0e6419H
	DD	0d5419H
	DD	0c3419H
	DD	0e0159219H
xdata	ENDS
;	COMDAT xdata
xdata	SEGMENT
$unwind$write_conn DD 081401H
	DD	0e6414H
	DD	0d5414H
	DD	0c3414H
	DD	070109214H
xdata	ENDS
;	COMDAT xdata
xdata	SEGMENT
$unwind$close_conn DD 020601H
	DD	030023206H
xdata	ENDS
;	COMDAT xdata
xdata	SEGMENT
$unwind$connect_conn DD 020601H
	DD	030025206H
xdata	ENDS
;	COMDAT xdata
xdata	SEGMENT
$unwind$setsockopts DD 020601H
	DD	030025206H
xdata	ENDS
;	COMDAT xdata
xdata	SEGMENT
$unwind$mg_connect_resolved DD 081401H
	DD	0c6414H
	DD	0b5414H
	DD	0a3414H
	DD	070107214H
xdata	ENDS
;	COMDAT xdata
xdata	SEGMENT
$unwind$raccept DD 081401H
	DD	086414H
	DD	075414H
	DD	063414H
	DD	070103214H
xdata	ENDS
;	COMDAT xdata
xdata	SEGMENT
$unwind$accept_conn DD 081401H
	DD	0106414H
	DD	0e3414H
	DD	0f0109214H
	DD	0700ce00eH
xdata	ENDS
;	COMDAT xdata
xdata	SEGMENT
$unwind$mg_iotest DD 091d01H
	DD	0d2641dH
	DD	0d1341dH
	DD	0cc011dH
	DD	0700ce00eH
	DD	0500bH
xdata	ENDS
;	COMDAT xdata
xdata	SEGMENT
$unwind$mg_socketpair DD 0a1801H
	DD	0b6418H
	DD	0a5418H
	DD	093418H
	DD	0f0143218H
	DD	07010e012H
xdata	ENDS
;	COMDAT xdata
xdata	SEGMENT
$unwind$wufn DD	060f01H
	DD	09640fH
	DD	08340fH
	DD	0700b520fH
xdata	ENDS
;	COMDAT xdata
xdata	SEGMENT
$unwind$mg_wakeup_init DD 061001H
	DD	0d6410H
	DD	0c3410H
	DD	0700c9210H
xdata	ENDS
;	COMDAT xdata
xdata	SEGMENT
$unwind$mg_wakeup DD 025091f01H
	DD	08741fH
	DD	076418H
	DD	063414H
	DD	03206230bH
	DD	05002H
xdata	ENDS
;	COMDAT xdata
xdata	SEGMENT
$unwind$mg_mgr_poll DD 060c01H
	DD	0f340cH
	DD	07008920cH
	DD	050066007H
xdata	ENDS
;	COMDAT xdata
xdata	SEGMENT
$unwind$mg_ncasecmp DD 020501H
	DD	013405H
xdata	ENDS
;	COMDAT xdata
xdata	SEGMENT
$unwind$mg_vcmp DD 020601H
	DD	030023206H
xdata	ENDS
;	COMDAT xdata
xdata	SEGMENT
$unwind$mg_vcasecmp DD 040a01H
	DD	06340aH
	DD	07006320aH
xdata	ENDS
;	COMDAT xdata
xdata	SEGMENT
$unwind$mg_strdup DD 081401H
	DD	086414H
	DD	075414H
	DD	063414H
	DD	070103214H
xdata	ENDS
;	COMDAT xdata
xdata	SEGMENT
$unwind$mg_strstr DD 0a1801H
	DD	0a6418H
	DD	095418H
	DD	083418H
	DD	0f0143218H
	DD	07010e012H
xdata	ENDS
;	COMDAT xdata
xdata	SEGMENT
$unwind$mg_match DD 060f01H
	DD	03740fH
	DD	02640aH
	DD	013405H
xdata	ENDS
;	COMDAT xdata
xdata	SEGMENT
$unwind$mg_globmatch DD 010701H
	DD	08207H
xdata	ENDS
;	COMDAT xdata
xdata	SEGMENT
$unwind$mg_split DD 081701H
	DD	0117417H
	DD	0106417H
	DD	0f3417H
	DD	05010b217H
xdata	ENDS
;	COMDAT xdata
xdata	SEGMENT
$unwind$mg_unhex DD 081901H
	DD	086419H
	DD	075419H
	DD	063419H
	DD	070153219H
xdata	ENDS
;	COMDAT xdata
xdata	SEGMENT
$unwind$mg_timer_poll DD 060f01H
	DD	07640fH
	DD	06340fH
	DD	0700b320fH
xdata	ENDS
;	COMDAT xdata
xdata	SEGMENT
$unwind$mg_url_is_ssl DD 060f01H
	DD	07640fH
	DD	06340fH
	DD	0700b320fH
xdata	ENDS
;	COMDAT xdata
xdata	SEGMENT
$unwind$mg_url_host DD 030901H
	DD	0120109H
	DD	03002H
xdata	ENDS
;	COMDAT xdata
xdata	SEGMENT
$unwind$mg_url_uri DD 020701H
	DD	0130107H
xdata	ENDS
;	COMDAT xdata
xdata	SEGMENT
$unwind$mg_url_port DD 071201H
	DD	0156412H
	DD	0143412H
	DD	0120112H
	DD	0700bH
xdata	ENDS
;	COMDAT xdata
xdata	SEGMENT
$unwind$mg_url_user DD 030901H
	DD	0140109H
	DD	03002H
xdata	ENDS
;	COMDAT xdata
xdata	SEGMENT
$unwind$mg_url_pass DD 030901H
	DD	0140109H
	DD	03002H
xdata	ENDS
;	COMDAT voltbl
voltbl	SEGMENT
_volmd	DB	0aH
voltbl	ENDS
;	COMDAT xdata
xdata	SEGMENT
$unwind$mg_random DD 040a01H
	DD	06340aH
	DD	07006320aH
xdata	ENDS
;	COMDAT xdata
xdata	SEGMENT
$unwind$mg_random_str DD 040a01H
	DD	06340aH
	DD	07006320aH
xdata	ENDS
;	COMDAT xdata
xdata	SEGMENT
$unwind$parse_net DD 0a1b01H
	DD	012741bH
	DD	011641bH
	DD	010341bH
	DD	0f014b21bH
	DD	05010e012H
xdata	ENDS
;	COMDAT xdata
xdata	SEGMENT
$unwind$mg_check_ip_acl DD 081201H
	DD	0f5412H
	DD	0e3412H
	DD	0e00e7212H
	DD	0600b700cH
xdata	ENDS
;	COMDAT xdata
xdata	SEGMENT
$unwind$mg_millis DD 010401H
	DD	04204H
xdata	ENDS
;	COMDAT xdata
xdata	SEGMENT
$unwind$mg_ws_vprintf DD 081401H
	DD	086414H
	DD	075414H
	DD	063414H
	DD	070103214H
xdata	ENDS
;	COMDAT xdata
xdata	SEGMENT
$unwind$mg_ws_printf DD 010f01H
	DD	0620fH
xdata	ENDS
;	COMDAT xdata
xdata	SEGMENT
$unwind$ws_handshake DD 0b1f01H
	DD	01de41fH
	DD	01c741fH
	DD	01b641fH
	DD	01a341fH
	DD	018011fH
	DD	05014H
xdata	ENDS
;	COMDAT xdata
xdata	SEGMENT
$unwind$ws_process DD 020501H
	DD	013405H
xdata	ENDS
;	COMDAT xdata
xdata	SEGMENT
$unwind$mkhdr DD 060f01H
	DD	07640fH
	DD	06340fH
	DD	0700b320fH
xdata	ENDS
;	COMDAT xdata
xdata	SEGMENT
$unwind$mg_ws_send DD 081501H
	DD	0a7415H
	DD	096415H
	DD	083415H
	DD	0e0115215H
xdata	ENDS
;	COMDAT xdata
xdata	SEGMENT
$unwind$mg_ws_client_handshake DD 091801H
	DD	08e7418H
	DD	08d6418H
	DD	08c3418H
	DD	08a0118H
	DD	0e011H
xdata	ENDS
;	COMDAT xdata
xdata	SEGMENT
$unwind$mg_ws_cb DD 0a2001H
	DD	0143420H
	DD	0f0199220H
	DD	0d015e017H
	DD	07011c013H
	DD	0500f6010H
xdata	ENDS
;	COMDAT xdata
xdata	SEGMENT
$unwind$mg_ws_connect DD 060c01H
	DD	011010cH
	DD	060047005H
	DD	030025003H
xdata	ENDS
;	COMDAT xdata
xdata	SEGMENT
$unwind$mg_ws_upgrade DD 051201H
	DD	0700e8212H
	DD	0500c600dH
	DD	0300bH
xdata	ENDS
;	COMDAT xdata
xdata	SEGMENT
$unwind$mg_ws_wrap DD 081401H
	DD	0a6414H
	DD	095414H
	DD	083414H
	DD	070105214H
; Function compile flags: /Ogspy
; File C:\Program Files (x86)\Windows Kits\10\Include\10.0.10240.0\ucrt\corecrt_stdio_config.h
;	COMDAT __local_stdio_scanf_options
_TEXT	SEGMENT
__local_stdio_scanf_options PROC			; COMDAT

; 83   :     static unsigned __int64 _OptionsStorage;
; 84   :     return &_OptionsStorage;

  00000	48 8d 05 00 00
	00 00		 lea	 rax, OFFSET FLAT:?_OptionsStorage@?1??__local_stdio_scanf_options@@9@9 ; `__local_stdio_scanf_options'::`2'::_OptionsStorage

; 85   : }

  00007	c3		 ret	 0
__local_stdio_scanf_options ENDP
_TEXT	ENDS
; Function compile flags: /Ogspy
; File C:\Program Files (x86)\Windows Kits\10\Include\10.0.10240.0\ucrt\stdio.h
;	COMDAT _vsscanf_l
_TEXT	SEGMENT
_Buffer$ = 64
_Format$ = 72
_Locale$dead$ = 80
_ArgList$ = 88
_vsscanf_l PROC						; COMDAT

; 2166 : {

$LN4:
  00000	48 89 5c 24 08	 mov	 QWORD PTR [rsp+8], rbx
  00005	48 89 74 24 10	 mov	 QWORD PTR [rsp+16], rsi
  0000a	57		 push	 rdi
  0000b	48 83 ec 30	 sub	 rsp, 48			; 00000030H
  0000f	49 8b d9	 mov	 rbx, r9
  00012	48 8b fa	 mov	 rdi, rdx
  00015	48 8b f1	 mov	 rsi, rcx

; 2167 :     return __stdio_common_vsscanf(

  00018	e8 00 00 00 00	 call	 __local_stdio_scanf_options
  0001d	48 89 5c 24 28	 mov	 QWORD PTR [rsp+40], rbx
  00022	4c 8b cf	 mov	 r9, rdi
  00025	48 83 64 24 20
	00		 and	 QWORD PTR [rsp+32], 0
  0002b	49 83 c8 ff	 or	 r8, -1
  0002f	48 8b d6	 mov	 rdx, rsi
  00032	48 8b 08	 mov	 rcx, QWORD PTR [rax]
  00035	ff 15 00 00 00
	00		 call	 QWORD PTR __imp___stdio_common_vsscanf

; 2168 :         _CRT_INTERNAL_LOCAL_SCANF_OPTIONS,
; 2169 :         _Buffer, (size_t)-1, _Format, _Locale, _ArgList);
; 2170 : }

  0003b	48 8b 5c 24 40	 mov	 rbx, QWORD PTR [rsp+64]
  00040	48 8b 74 24 48	 mov	 rsi, QWORD PTR [rsp+72]
  00045	48 83 c4 30	 add	 rsp, 48			; 00000030H
  00049	5f		 pop	 rdi
  0004a	c3		 ret	 0
_vsscanf_l ENDP
_TEXT	ENDS
; Function compile flags: /Ogspy
; File C:\Program Files (x86)\Windows Kits\10\Include\10.0.10240.0\ucrt\stdio.h
;	COMDAT sscanf
_TEXT	SEGMENT
_Buffer$ = 80
_Format$ = 88
sscanf	PROC						; COMDAT

; 2261 : {

$LN6:
  00000	48 8b c4	 mov	 rax, rsp
  00003	48 89 50 10	 mov	 QWORD PTR [rax+16], rdx
  00007	4c 89 40 18	 mov	 QWORD PTR [rax+24], r8
  0000b	4c 89 48 20	 mov	 QWORD PTR [rax+32], r9
  0000f	53		 push	 rbx
  00010	56		 push	 rsi
  00011	57		 push	 rdi
  00012	48 83 ec 30	 sub	 rsp, 48			; 00000030H
  00016	48 8b da	 mov	 rbx, rdx

; 2262 :     int _Result;
; 2263 :     va_list _ArgList;
; 2264 :     __crt_va_start(_ArgList, _Format);

  00019	48 8d 70 18	 lea	 rsi, QWORD PTR [rax+24]
  0001d	48 8b f9	 mov	 rdi, rcx

; 2167 :     return __stdio_common_vsscanf(

  00020	e8 00 00 00 00	 call	 __local_stdio_scanf_options
  00025	48 89 74 24 28	 mov	 QWORD PTR [rsp+40], rsi
  0002a	4c 8b cb	 mov	 r9, rbx
  0002d	48 83 64 24 20
	00		 and	 QWORD PTR [rsp+32], 0
  00033	49 83 c8 ff	 or	 r8, -1
  00037	48 8b d7	 mov	 rdx, rdi
  0003a	48 8b 08	 mov	 rcx, QWORD PTR [rax]
  0003d	ff 15 00 00 00
	00		 call	 QWORD PTR __imp___stdio_common_vsscanf

; 2265 :     _Result = _vsscanf_l(_Buffer, _Format, NULL, _ArgList);
; 2266 :     __crt_va_end(_ArgList);
; 2267 :     return _Result;
; 2268 : }

  00043	48 83 c4 30	 add	 rsp, 48			; 00000030H
  00047	5f		 pop	 rdi
  00048	5e		 pop	 rsi
  00049	5b		 pop	 rbx
  0004a	c3		 ret	 0
sscanf	ENDP
_TEXT	ENDS
; Function compile flags: /Ogspy
; File C:\Users\dev\source\repos\alpinevms\src\mongoose.c
;	COMDAT mg_base64_encode_single
_TEXT	SEGMENT
c$ = 8
mg_base64_encode_single PROC				; COMDAT

; 28   :   if (c < 26) {

  00000	83 f9 1a	 cmp	 ecx, 26
  00003	7d 04		 jge	 SHORT $LN2@mg_base64_

; 29   :     return c + 'A';

  00005	8d 41 41	 lea	 eax, DWORD PTR [rcx+65]

; 36   :   }
; 37   : }

  00008	c3		 ret	 0
$LN2@mg_base64_:

; 30   :   } else if (c < 52) {

  00009	83 f9 34	 cmp	 ecx, 52			; 00000034H
  0000c	7d 04		 jge	 SHORT $LN4@mg_base64_

; 31   :     return c - 26 + 'a';

  0000e	8d 41 47	 lea	 eax, DWORD PTR [rcx+71]

; 36   :   }
; 37   : }

  00011	c3		 ret	 0
$LN4@mg_base64_:

; 32   :   } else if (c < 62) {

  00012	83 f9 3e	 cmp	 ecx, 62			; 0000003eH
  00015	7d 04		 jge	 SHORT $LN6@mg_base64_

; 33   :     return c - 52 + '0';

  00017	8d 41 fc	 lea	 eax, DWORD PTR [rcx-4]

; 36   :   }
; 37   : }

  0001a	c3		 ret	 0
$LN6@mg_base64_:

; 34   :   } else {
; 35   :     return c == 62 ? '+' : '/';

  0001b	b8 2f 00 00 00	 mov	 eax, 47			; 0000002fH
  00020	8d 50 fc	 lea	 edx, QWORD PTR [rax-4]
  00023	0f 44 c2	 cmove	 eax, edx

; 36   :   }
; 37   : }

  00026	c3		 ret	 0
mg_base64_encode_single ENDP
_TEXT	ENDS
; Function compile flags: /Ogspy
; File C:\Users\dev\source\repos\alpinevms\src\mongoose.c
;	COMDAT mg_base64_decode_single
_TEXT	SEGMENT
c$ = 8
mg_base64_decode_single PROC				; COMDAT

; 40   :   if (c >= 'A' && c <= 'Z') {

  00000	8d 41 bf	 lea	 eax, DWORD PTR [rcx-65]
  00003	83 f8 19	 cmp	 eax, 25
  00006	76 36		 jbe	 SHORT $LN13@mg_base64_

; 41   :     return c - 'A';
; 42   :   } else if (c >= 'a' && c <= 'z') {

  00008	8d 41 9f	 lea	 eax, DWORD PTR [rcx-97]
  0000b	83 f8 19	 cmp	 eax, 25
  0000e	77 04		 ja	 SHORT $LN4@mg_base64_

; 43   :     return c + 26 - 'a';

  00010	8d 41 b9	 lea	 eax, DWORD PTR [rcx-71]

; 51   :     return 64;
; 52   :   } else {
; 53   :     return -1;
; 54   :   }
; 55   : }

  00013	c3		 ret	 0
$LN4@mg_base64_:

; 44   :   } else if (c >= '0' && c <= '9') {

  00014	8d 41 d0	 lea	 eax, DWORD PTR [rcx-48]
  00017	83 f8 09	 cmp	 eax, 9
  0001a	77 04		 ja	 SHORT $LN6@mg_base64_

; 45   :     return c + 52 - '0';

  0001c	8d 41 04	 lea	 eax, DWORD PTR [rcx+4]

; 51   :     return 64;
; 52   :   } else {
; 53   :     return -1;
; 54   :   }
; 55   : }

  0001f	c3		 ret	 0
$LN6@mg_base64_:

; 46   :   } else if (c == '+') {

  00020	83 f9 2b	 cmp	 ecx, 43			; 0000002bH
  00023	75 04		 jne	 SHORT $LN8@mg_base64_

; 47   :     return 62;

  00025	8d 41 13	 lea	 eax, QWORD PTR [rcx+19]

; 51   :     return 64;
; 52   :   } else {
; 53   :     return -1;
; 54   :   }
; 55   : }

  00028	c3		 ret	 0
$LN8@mg_base64_:

; 48   :   } else if (c == '/') {

  00029	83 f9 2f	 cmp	 ecx, 47			; 0000002fH
  0002c	75 04		 jne	 SHORT $LN10@mg_base64_

; 49   :     return 63;

  0002e	8d 41 10	 lea	 eax, QWORD PTR [rcx+16]

; 51   :     return 64;
; 52   :   } else {
; 53   :     return -1;
; 54   :   }
; 55   : }

  00031	c3		 ret	 0
$LN10@mg_base64_:

; 50   :   } else if (c == '=') {

  00032	83 c8 ff	 or	 eax, -1
  00035	83 f9 3d	 cmp	 ecx, 61			; 0000003dH
  00038	8d 50 41	 lea	 edx, QWORD PTR [rax+65]
  0003b	0f 44 c2	 cmove	 eax, edx
$LN13@mg_base64_:

; 51   :     return 64;
; 52   :   } else {
; 53   :     return -1;
; 54   :   }
; 55   : }

  0003e	c3		 ret	 0
mg_base64_decode_single ENDP
_TEXT	ENDS
; Function compile flags: /Ogspy
; File C:\Users\dev\source\repos\alpinevms\src\mongoose.c
;	COMDAT mg_base64_update
_TEXT	SEGMENT
ch$ = 48
to$ = 56
n$ = 64
mg_base64_update PROC					; COMDAT

; 57   : size_t mg_base64_update(unsigned char ch, char *to, size_t n) {

$LN8:
  00000	40 53		 push	 rbx
  00002	48 83 ec 20	 sub	 rsp, 32			; 00000020H
  00006	44 0f b6 c9	 movzx	 r9d, cl
  0000a	4c 8b d2	 mov	 r10, rdx

; 58   :   unsigned long rem = (n & 3) % 3;

  0000d	49 8b c8	 mov	 rcx, r8
  00010	4d 8b d8	 mov	 r11, r8
  00013	83 e1 03	 and	 ecx, 3
  00016	48 b8 ab aa aa
	aa aa aa aa aa	 mov	 rax, -6148914691236517205 ; aaaaaaaaaaaaaaabH
  00020	48 f7 e1	 mul	 rcx
  00023	45 8b c1	 mov	 r8d, r9d
  00026	49 8d 5b 01	 lea	 rbx, QWORD PTR [r11+1]
  0002a	48 d1 ea	 shr	 rdx, 1
  0002d	48 8d 04 52	 lea	 rax, QWORD PTR [rdx+rdx*2]
  00031	48 2b c8	 sub	 rcx, rax

; 59   :   if (rem == 0) {

  00034	85 c9		 test	 ecx, ecx
  00036	75 1d		 jne	 SHORT $LN2@mg_base64_

; 60   :     to[n] = (char) mg_base64_encode_single(ch >> 2);

  00038	41 c1 e8 02	 shr	 r8d, 2
  0003c	41 8b c8	 mov	 ecx, r8d
  0003f	e8 00 00 00 00	 call	 mg_base64_encode_single

; 61   :     to[++n] = (char) ((ch & 3) << 4);

  00044	41 80 e1 03	 and	 r9b, 3
  00048	43 88 04 1a	 mov	 BYTE PTR [r10+r11], al
  0004c	4c 8b db	 mov	 r11, rbx
  0004f	41 c0 e1 04	 shl	 r9b, 4
  00053	eb 50		 jmp	 SHORT $LN5@mg_base64_
$LN2@mg_base64_:

; 62   :   } else if (rem == 1) {

  00055	83 f9 01	 cmp	 ecx, 1
  00058	75 22		 jne	 SHORT $LN4@mg_base64_

; 63   :     to[n] = (char) mg_base64_encode_single(to[n] | (ch >> 4));

  0005a	43 0f be 0c 1a	 movsx	 ecx, BYTE PTR [r10+r11]
  0005f	41 c1 e8 04	 shr	 r8d, 4
  00063	41 0b c8	 or	 ecx, r8d
  00066	e8 00 00 00 00	 call	 mg_base64_encode_single

; 64   :     to[++n] = (char) ((ch & 15) << 2);

  0006b	41 80 e1 0f	 and	 r9b, 15
  0006f	43 88 04 1a	 mov	 BYTE PTR [r10+r11], al
  00073	4c 8b db	 mov	 r11, rbx
  00076	41 c0 e1 02	 shl	 r9b, 2

; 65   :   } else {

  0007a	eb 29		 jmp	 SHORT $LN5@mg_base64_
$LN4@mg_base64_:

; 66   :     to[n] = (char) mg_base64_encode_single(to[n] | (ch >> 6));

  0007c	43 0f be 04 1a	 movsx	 eax, BYTE PTR [r10+r11]
  00081	41 8b c8	 mov	 ecx, r8d
  00084	c1 e9 06	 shr	 ecx, 6
  00087	0b c8		 or	 ecx, eax
  00089	e8 00 00 00 00	 call	 mg_base64_encode_single

; 67   :     to[++n] = (char) mg_base64_encode_single(ch & 63);

  0008e	41 83 e0 3f	 and	 r8d, 63			; 0000003fH
  00092	43 88 04 1a	 mov	 BYTE PTR [r10+r11], al
  00096	41 8b c8	 mov	 ecx, r8d

; 68   :     n++;

  00099	4c 8d 5b 01	 lea	 r11, QWORD PTR [rbx+1]
  0009d	e8 00 00 00 00	 call	 mg_base64_encode_single
  000a2	44 8b c8	 mov	 r9d, eax
$LN5@mg_base64_:

; 69   :   }
; 70   :   return n;

  000a5	46 88 0c 13	 mov	 BYTE PTR [rbx+r10], r9b
  000a9	49 8b c3	 mov	 rax, r11

; 71   : }

  000ac	48 83 c4 20	 add	 rsp, 32			; 00000020H
  000b0	5b		 pop	 rbx
  000b1	c3		 ret	 0
mg_base64_update ENDP
_TEXT	ENDS
; Function compile flags: /Ogspy
; File C:\Users\dev\source\repos\alpinevms\src\mongoose.c
;	COMDAT mg_base64_final
_TEXT	SEGMENT
to$ = 48
n$ = 56
mg_base64_final PROC					; COMDAT

; 73   : size_t mg_base64_final(char *to, size_t n) {

$LN13:
  00000	48 89 5c 24 08	 mov	 QWORD PTR [rsp+8], rbx
  00005	57		 push	 rdi
  00006	48 83 ec 20	 sub	 rsp, 32			; 00000020H

; 74   :   size_t saved = n;
; 75   :   // printf("---[%.*s]\n", n, to);
; 76   :   if (n & 3) n = mg_base64_update(0, to, n);

  0000a	48 8b fa	 mov	 rdi, rdx
  0000d	48 8b d9	 mov	 rbx, rcx
  00010	83 e7 03	 and	 edi, 3
  00013	74 10		 je	 SHORT $LN4@mg_base64_
  00015	4c 8b c2	 mov	 r8, rdx
  00018	48 8b d1	 mov	 rdx, rcx
  0001b	33 c9		 xor	 ecx, ecx
  0001d	e8 00 00 00 00	 call	 mg_base64_update
  00022	48 8b d0	 mov	 rdx, rax
$LN4@mg_base64_:

; 77   :   if ((saved & 3) == 2) n--;
; 78   :   // printf("    %d[%.*s]\n", n, n, to);
; 79   :   while (n & 3) to[n++] = '=';

  00025	48 83 ff 02	 cmp	 rdi, 2
  00029	48 8d 42 ff	 lea	 rax, QWORD PTR [rdx-1]
  0002d	48 0f 45 c2	 cmovne	 rax, rdx
  00031	eb 07		 jmp	 SHORT $LN11@mg_base64_
$LL2@mg_base64_:
  00033	c6 04 03 3d	 mov	 BYTE PTR [rbx+rax], 61	; 0000003dH
  00037	48 ff c0	 inc	 rax
$LN11@mg_base64_:
  0003a	a8 03		 test	 al, 3
  0003c	75 f5		 jne	 SHORT $LL2@mg_base64_

; 80   :   to[n] = '\0';

  0003e	c6 04 03 00	 mov	 BYTE PTR [rbx+rax], 0

; 81   :   return n;
; 82   : }

  00042	48 8b 5c 24 30	 mov	 rbx, QWORD PTR [rsp+48]
  00047	48 83 c4 20	 add	 rsp, 32			; 00000020H
  0004b	5f		 pop	 rdi
  0004c	c3		 ret	 0
mg_base64_final ENDP
_TEXT	ENDS
; Function compile flags: /Ogspy
; File C:\Users\dev\source\repos\alpinevms\src\mongoose.c
;	COMDAT mg_base64_encode
_TEXT	SEGMENT
p$ = 48
n$ = 56
to$ = 64
dl$dead$ = 72
mg_base64_encode PROC					; COMDAT

; 84   : size_t mg_base64_encode(const unsigned char *p, size_t n, char *to, size_t dl) {

$LN13:
  00000	48 89 5c 24 08	 mov	 QWORD PTR [rsp+8], rbx
  00005	48 89 6c 24 10	 mov	 QWORD PTR [rsp+16], rbp
  0000a	48 89 74 24 18	 mov	 QWORD PTR [rsp+24], rsi
  0000f	57		 push	 rdi
  00010	48 83 ec 20	 sub	 rsp, 32			; 00000020H
  00014	48 8b fa	 mov	 rdi, rdx
  00017	49 8b f0	 mov	 rsi, r8

; 85   :   size_t i, len = 0;

  0001a	45 33 c0	 xor	 r8d, r8d

; 86   :   if (dl > 0) to[0] = '\0';
; 87   :   if (dl < ((n / 3) + (n % 3 ? 1 : 0)) * 4 + 1) return 0;

  0001d	48 b8 ab aa aa
	aa aa aa aa aa	 mov	 rax, -6148914691236517205 ; aaaaaaaaaaaaaaabH
  00027	48 f7 e2	 mul	 rdx
  0002a	45 8b c8	 mov	 r9d, r8d
  0002d	48 8b e9	 mov	 rbp, rcx
  00030	44 88 06	 mov	 BYTE PTR [rsi], r8b
  00033	48 d1 ea	 shr	 rdx, 1
  00036	48 8d 04 52	 lea	 rax, QWORD PTR [rdx+rdx*2]
  0003a	48 3b f8	 cmp	 rdi, rax
  0003d	41 0f 95 c1	 setne	 r9b
  00041	4c 03 ca	 add	 r9, rdx
  00044	4a 8d 04 8d 01
	00 00 00	 lea	 rax, QWORD PTR [r9*4+1]
  0004c	48 83 f8 1e	 cmp	 rax, 30
  00050	76 04		 jbe	 SHORT $LN6@mg_base64_
  00052	33 c0		 xor	 eax, eax
  00054	eb 29		 jmp	 SHORT $LN1@mg_base64_
$LN6@mg_base64_:

; 88   :   for (i = 0; i < n; i++) len = mg_base64_update(p[i], to, len);

  00056	49 8b d8	 mov	 rbx, r8
  00059	48 85 ff	 test	 rdi, rdi
  0005c	74 16		 je	 SHORT $LN3@mg_base64_
$LL4@mg_base64_:
  0005e	8a 0c 2b	 mov	 cl, BYTE PTR [rbx+rbp]
  00061	48 8b d6	 mov	 rdx, rsi
  00064	e8 00 00 00 00	 call	 mg_base64_update
  00069	48 ff c3	 inc	 rbx
  0006c	4c 8b c0	 mov	 r8, rax
  0006f	48 3b df	 cmp	 rbx, rdi
  00072	72 ea		 jb	 SHORT $LL4@mg_base64_
$LN3@mg_base64_:

; 89   :   len = mg_base64_final(to, len);

  00074	49 8b d0	 mov	 rdx, r8
  00077	48 8b ce	 mov	 rcx, rsi
  0007a	e8 00 00 00 00	 call	 mg_base64_final
$LN1@mg_base64_:

; 90   :   return len;
; 91   : }

  0007f	48 8b 5c 24 30	 mov	 rbx, QWORD PTR [rsp+48]
  00084	48 8b 6c 24 38	 mov	 rbp, QWORD PTR [rsp+56]
  00089	48 8b 74 24 40	 mov	 rsi, QWORD PTR [rsp+64]
  0008e	48 83 c4 20	 add	 rsp, 32			; 00000020H
  00092	5f		 pop	 rdi
  00093	c3		 ret	 0
mg_base64_encode ENDP
_TEXT	ENDS
; Function compile flags: /Ogspy
; File C:\Users\dev\source\repos\alpinevms\src\mongoose.c
;	COMDAT mg_base64_decode
_TEXT	SEGMENT
src$ = 48
n$ = 56
dst$ = 64
dl$ = 72
mg_base64_decode PROC					; COMDAT

; 93   : size_t mg_base64_decode(const char *src, size_t n, char *dst, size_t dl) {

$LN19:
  00000	48 89 5c 24 08	 mov	 QWORD PTR [rsp+8], rbx
  00005	48 89 6c 24 10	 mov	 QWORD PTR [rsp+16], rbp
  0000a	48 89 74 24 18	 mov	 QWORD PTR [rsp+24], rsi
  0000f	57		 push	 rdi
  00010	48 83 ec 20	 sub	 rsp, 32			; 00000020H

; 94   :   const char *end = src == NULL ? NULL : src + n;  // Cannot add to NULL

  00014	4c 8d 14 11	 lea	 r10, QWORD PTR [rcx+rdx]
  00018	48 8b c1	 mov	 rax, rcx
  0001b	48 f7 d8	 neg	 rax
  0001e	49 8b e9	 mov	 rbp, r9
  00021	4d 8b d8	 mov	 r11, r8
  00024	48 1b f6	 sbb	 rsi, rsi

; 95   :   size_t len = 0;
; 96   :   if (dl < n / 4 * 3 + 1) goto fail;

  00027	48 c1 ea 02	 shr	 rdx, 2
  0002b	49 23 f2	 and	 rsi, r10
  0002e	45 33 d2	 xor	 r10d, r10d
  00031	48 8d 04 55 01
	00 00 00	 lea	 rax, QWORD PTR [rdx*2+1]
  00039	48 03 c2	 add	 rax, rdx
  0003c	4c 3b c8	 cmp	 r9, rax
  0003f	0f 82 bc 00 00
	00		 jb	 $fail$20

; 97   :   while (src != NULL && src + 3 < end) {

  00045	48 85 c9	 test	 rcx, rcx
  00048	0f 84 a9 00 00
	00		 je	 $LN3@mg_base64_
  0004e	4c 8d 41 03	 lea	 r8, QWORD PTR [rcx+3]
$LL2@mg_base64_:
  00052	4c 3b c6	 cmp	 r8, rsi
  00055	0f 83 9c 00 00
	00		 jae	 $LN3@mg_base64_

; 98   :     int a = mg_base64_decode_single(src[0]),

  0005b	41 0f be 48 fd	 movsx	 ecx, BYTE PTR [r8-3]
  00060	e8 00 00 00 00	 call	 mg_base64_decode_single

; 99   :         b = mg_base64_decode_single(src[1]),

  00065	41 0f be 48 fe	 movsx	 ecx, BYTE PTR [r8-2]
  0006a	8b f8		 mov	 edi, eax
  0006c	e8 00 00 00 00	 call	 mg_base64_decode_single

; 100  :         c = mg_base64_decode_single(src[2]),

  00071	41 0f be 48 ff	 movsx	 ecx, BYTE PTR [r8-1]
  00076	8b d8		 mov	 ebx, eax
  00078	e8 00 00 00 00	 call	 mg_base64_decode_single

; 101  :         d = mg_base64_decode_single(src[3]);

  0007d	41 0f be 08	 movsx	 ecx, BYTE PTR [r8]
  00081	44 8b c8	 mov	 r9d, eax
  00084	e8 00 00 00 00	 call	 mg_base64_decode_single
  00089	8b c8		 mov	 ecx, eax

; 102  :     if (a == 64 || a < 0 || b == 64 || b < 0 || c < 0 || d < 0) {

  0008b	85 ff		 test	 edi, edi
  0008d	78 72		 js	 SHORT $fail$20
  0008f	83 ff 40	 cmp	 edi, 64			; 00000040H
  00092	74 6d		 je	 SHORT $fail$20
  00094	85 db		 test	 ebx, ebx
  00096	78 69		 js	 SHORT $fail$20
  00098	83 fb 40	 cmp	 ebx, 64			; 00000040H
  0009b	74 64		 je	 SHORT $fail$20
  0009d	45 85 c9	 test	 r9d, r9d
  000a0	78 5f		 js	 SHORT $fail$20
  000a2	85 c0		 test	 eax, eax
  000a4	78 5b		 js	 SHORT $fail$20

; 103  :       goto fail;
; 104  :     }
; 105  :     dst[len++] = (char) ((a << 2) | (b >> 4));

  000a6	40 c0 e7 02	 shl	 dil, 2
  000aa	8b c3		 mov	 eax, ebx
  000ac	c1 f8 04	 sar	 eax, 4
  000af	40 0a c7	 or	 al, dil
  000b2	43 88 04 1a	 mov	 BYTE PTR [r10+r11], al
  000b6	49 ff c2	 inc	 r10

; 106  :     if (src[2] != '=') {

  000b9	41 80 78 ff 3d	 cmp	 BYTE PTR [r8-1], 61	; 0000003dH
  000be	74 26		 je	 SHORT $LN8@mg_base64_

; 107  :       dst[len++] = (char) ((b << 4) | (c >> 2));

  000c0	c0 e3 04	 shl	 bl, 4
  000c3	41 8b c1	 mov	 eax, r9d
  000c6	c1 f8 02	 sar	 eax, 2
  000c9	0a c3		 or	 al, bl
  000cb	43 88 04 1a	 mov	 BYTE PTR [r10+r11], al
  000cf	49 ff c2	 inc	 r10

; 108  :       if (src[3] != '=') dst[len++] = (char) ((c << 6) | d);

  000d2	41 80 38 3d	 cmp	 BYTE PTR [r8], 61	; 0000003dH
  000d6	74 0e		 je	 SHORT $LN8@mg_base64_
  000d8	41 c0 e1 06	 shl	 r9b, 6
  000dc	44 0a c9	 or	 r9b, cl
  000df	47 88 0c 1a	 mov	 BYTE PTR [r10+r11], r9b
  000e3	49 ff c2	 inc	 r10
$LN8@mg_base64_:

; 109  :     }
; 110  :     src += 4;

  000e6	49 83 c0 04	 add	 r8, 4
  000ea	49 8d 48 fd	 lea	 rcx, QWORD PTR [r8-3]
  000ee	48 85 c9	 test	 rcx, rcx
  000f1	0f 85 5b ff ff
	ff		 jne	 $LL2@mg_base64_
$LN3@mg_base64_:

; 111  :   }
; 112  :   dst[len] = '\0';

  000f7	43 c6 04 1a 00	 mov	 BYTE PTR [r10+r11], 0

; 113  :   return len;

  000fc	49 8b c2	 mov	 rax, r10
  000ff	eb 0b		 jmp	 SHORT $LN1@mg_base64_
$fail$20:

; 114  : fail:
; 115  :   if (dl > 0) dst[0] = '\0';

  00101	48 85 ed	 test	 rbp, rbp
  00104	74 04		 je	 SHORT $LN9@mg_base64_
  00106	41 c6 03 00	 mov	 BYTE PTR [r11], 0
$LN9@mg_base64_:

; 116  :   return 0;

  0010a	33 c0		 xor	 eax, eax
$LN1@mg_base64_:

; 117  : }

  0010c	48 8b 5c 24 30	 mov	 rbx, QWORD PTR [rsp+48]
  00111	48 8b 6c 24 38	 mov	 rbp, QWORD PTR [rsp+56]
  00116	48 8b 74 24 40	 mov	 rsi, QWORD PTR [rsp+64]
  0011b	48 83 c4 20	 add	 rsp, 32			; 00000020H
  0011f	5f		 pop	 rdi
  00120	c3		 ret	 0
mg_base64_decode ENDP
_TEXT	ENDS
; Function compile flags: /Ogspy
; File C:\Users\dev\source\repos\alpinevms\src\mongoose.c
;	COMDAT mg_flash_start
_TEXT	SEGMENT
mg_flash_start PROC					; COMDAT

; 208  :   return NULL;

  00000	33 c0		 xor	 eax, eax

; 209  : }

  00002	c3		 ret	 0
mg_flash_start ENDP
_TEXT	ENDS
; Function compile flags: /Ogspy
; File C:\Users\dev\source\repos\alpinevms\src\mongoose.c
;	COMDAT mg_flash_size
_TEXT	SEGMENT
mg_flash_size PROC					; COMDAT

; 211  :   return 0;

  00000	33 c0		 xor	 eax, eax

; 212  : }

  00002	c3		 ret	 0
mg_flash_size ENDP
_TEXT	ENDS
; Function compile flags: /Ogspy
; File C:\Users\dev\source\repos\alpinevms\src\mongoose.c
;	COMDAT mg_flash_sector_size
_TEXT	SEGMENT
mg_flash_sector_size PROC				; COMDAT

; 214  :   return 0;

  00000	33 c0		 xor	 eax, eax

; 215  : }

  00002	c3		 ret	 0
mg_flash_sector_size ENDP
_TEXT	ENDS
; Function compile flags: /Ogspy
; File C:\Users\dev\source\repos\alpinevms\src\mongoose.c
;	COMDAT mg_flash_write_align
_TEXT	SEGMENT
mg_flash_write_align PROC				; COMDAT

; 217  :   return 0;

  00000	33 c0		 xor	 eax, eax

; 218  : }

  00002	c3		 ret	 0
mg_flash_write_align ENDP
_TEXT	ENDS
; Function compile flags: /Ogspy
; File C:\Users\dev\source\repos\alpinevms\src\mongoose.c
;	COMDAT mg_flash_bank
_TEXT	SEGMENT
mg_flash_bank PROC					; COMDAT

; 220  :   return 0;

  00000	33 c0		 xor	 eax, eax

; 221  : }

  00002	c3		 ret	 0
mg_flash_bank ENDP
_TEXT	ENDS
; Function compile flags: /Ogspy
; File C:\Users\dev\source\repos\alpinevms\src\mongoose.c
;	COMDAT mg_flash_erase
_TEXT	SEGMENT
location$dead$ = 8
mg_flash_erase PROC					; COMDAT

; 223  :   (void) location;
; 224  :   return false;

  00000	32 c0		 xor	 al, al

; 225  : }

  00002	c3		 ret	 0
mg_flash_erase ENDP
_TEXT	ENDS
; Function compile flags: /Ogspy
; File C:\Users\dev\source\repos\alpinevms\src\mongoose.c
;	COMDAT mg_flash_swap_bank
_TEXT	SEGMENT
mg_flash_swap_bank PROC					; COMDAT

; 227  :   return true;

  00000	b0 01		 mov	 al, 1

; 228  : }

  00002	c3		 ret	 0
mg_flash_swap_bank ENDP
_TEXT	ENDS
; Function compile flags: /Ogspy
; File C:\Users\dev\source\repos\alpinevms\src\mongoose.c
;	COMDAT mg_flash_write
_TEXT	SEGMENT
addr$dead$ = 8
buf$dead$ = 16
len$dead$ = 24
mg_flash_write PROC					; COMDAT

; 230  :   (void) addr, (void) buf, (void) len;
; 231  :   return false;

  00000	32 c0		 xor	 al, al

; 232  : }

  00002	c3		 ret	 0
mg_flash_write ENDP
_TEXT	ENDS
; Function compile flags: /Ogspy
; File C:\Users\dev\source\repos\alpinevms\src\mongoose.c
;	COMDAT mg_device_reset
_TEXT	SEGMENT
mg_device_reset PROC					; COMDAT

; 234  : }

  00000	c2 00 00	 ret	 0
mg_device_reset ENDP
_TEXT	ENDS
; Function compile flags: /Ogspy
; File C:\Users\dev\source\repos\alpinevms\src\mongoose.c
;	COMDAT mg_flash_save
_TEXT	SEGMENT
sector$dead$ = 8
key$dead$ = 16
buf$dead$ = 24
len$dead$ = 32
mg_flash_save PROC					; COMDAT

; 404  :   (void) sector, (void) key, (void) buf, (void) len;
; 405  :   return false;

  00000	32 c0		 xor	 al, al

; 406  : }

  00002	c3		 ret	 0
mg_flash_save ENDP
_TEXT	ENDS
; Function compile flags: /Ogspy
; File C:\Users\dev\source\repos\alpinevms\src\mongoose.c
;	COMDAT mg_flash_load
_TEXT	SEGMENT
sector$dead$ = 8
key$dead$ = 16
buf$dead$ = 24
len$dead$ = 32
mg_flash_load PROC					; COMDAT

; 408  :   (void) sector, (void) key, (void) buf, (void) len;
; 409  :   return false;

  00000	32 c0		 xor	 al, al

; 410  : }

  00002	c3		 ret	 0
mg_flash_load ENDP
_TEXT	ENDS
; Function compile flags: /Ogspy
; File C:\Users\dev\source\repos\alpinevms\src\mongoose.c
;	COMDAT mg_dns_free
_TEXT	SEGMENT
head$ = 8
d$ = 16
mg_dns_free PROC					; COMDAT

; 1082 :   LIST_DELETE(struct dns_data, head, d);

  00000	4c 8b 01	 mov	 r8, QWORD PTR [rcx]
  00003	4c 3b c2	 cmp	 r8, rdx
  00006	74 0e		 je	 SHORT $LN6@mg_dns_fre
$LL5@mg_dns_fre:
  00008	49 8b 00	 mov	 rax, QWORD PTR [r8]
  0000b	49 8b c8	 mov	 rcx, r8
  0000e	4c 8b c0	 mov	 r8, rax
  00011	48 3b c2	 cmp	 rax, rdx
  00014	75 f2		 jne	 SHORT $LL5@mg_dns_fre
$LN6@mg_dns_fre:
  00016	48 8b 02	 mov	 rax, QWORD PTR [rdx]
  00019	48 89 01	 mov	 QWORD PTR [rcx], rax

; 1083 :   free(d);

  0001c	48 8b ca	 mov	 rcx, rdx
  0001f	48 ff 25 00 00
	00 00		 rex_jmp QWORD PTR __imp_free
mg_dns_free ENDP
_TEXT	ENDS
; Function compile flags: /Ogspy
; File C:\Users\dev\source\repos\alpinevms\src\mongoose.c
;	COMDAT mg_resolve_cancel
_TEXT	SEGMENT
c$ = 48
mg_resolve_cancel PROC					; COMDAT

; 1086 : void mg_resolve_cancel(struct mg_connection *c) {

$LN23:
  00000	48 89 5c 24 08	 mov	 QWORD PTR [rsp+8], rbx
  00005	48 89 74 24 10	 mov	 QWORD PTR [rsp+16], rsi
  0000a	57		 push	 rdi
  0000b	48 83 ec 20	 sub	 rsp, 32			; 00000020H

; 1087 :   struct dns_data *tmp, *d;
; 1088 :   struct dns_data **head = (struct dns_data **) &c->mgr->active_dns_requests;

  0000f	48 8b 59 08	 mov	 rbx, QWORD PTR [rcx+8]
  00013	48 8b f1	 mov	 rsi, rcx

; 1089 :   for (d = *head; d != NULL; d = tmp) {

  00016	48 8b 4b 50	 mov	 rcx, QWORD PTR [rbx+80]
  0001a	48 85 c9	 test	 rcx, rcx
  0001d	74 35		 je	 SHORT $LN3@mg_resolve
$LL4@mg_resolve:

; 1090 :     tmp = d->next;

  0001f	48 8b 39	 mov	 rdi, QWORD PTR [rcx]

; 1091 :     if (d->c == c) mg_dns_free(head, d);

  00022	48 39 71 08	 cmp	 QWORD PTR [rcx+8], rsi
  00026	75 24		 jne	 SHORT $LN2@mg_resolve

; 1082 :   LIST_DELETE(struct dns_data, head, d);

  00028	48 8b 53 50	 mov	 rdx, QWORD PTR [rbx+80]
  0002c	4c 8d 43 50	 lea	 r8, QWORD PTR [rbx+80]
  00030	48 3b d1	 cmp	 rdx, rcx
  00033	74 0e		 je	 SHORT $LN12@mg_resolve
$LL11@mg_resolve:
  00035	48 8b 02	 mov	 rax, QWORD PTR [rdx]
  00038	4c 8b c2	 mov	 r8, rdx
  0003b	48 8b d0	 mov	 rdx, rax
  0003e	48 3b c1	 cmp	 rax, rcx
  00041	75 f2		 jne	 SHORT $LL11@mg_resolve
$LN12@mg_resolve:
  00043	49 89 38	 mov	 QWORD PTR [r8], rdi

; 1083 :   free(d);

  00046	ff 15 00 00 00
	00		 call	 QWORD PTR __imp_free
$LN2@mg_resolve:

; 1089 :   for (d = *head; d != NULL; d = tmp) {

  0004c	48 8b cf	 mov	 rcx, rdi
  0004f	48 85 ff	 test	 rdi, rdi
  00052	75 cb		 jne	 SHORT $LL4@mg_resolve
$LN3@mg_resolve:

; 1092 :   }
; 1093 : }

  00054	48 8b 5c 24 30	 mov	 rbx, QWORD PTR [rsp+48]
  00059	48 8b 74 24 38	 mov	 rsi, QWORD PTR [rsp+56]
  0005e	48 83 c4 20	 add	 rsp, 32			; 00000020H
  00062	5f		 pop	 rdi
  00063	c3		 ret	 0
mg_resolve_cancel ENDP
_TEXT	ENDS
; Function compile flags: /Ogspy
; File C:\Users\dev\source\repos\alpinevms\src\mongoose.c
;	COMDAT mg_dns_parse_name_depth
_TEXT	SEGMENT
s$ = 112
len$ = 120
ofs$ = 128
to$ = 136
tolen$ = 144
j$ = 152
depth$ = 160
mg_dns_parse_name_depth PROC				; COMDAT

; 1097 :                                       int depth) {

  00000	48 89 5c 24 08	 mov	 QWORD PTR [rsp+8], rbx
  00005	48 89 6c 24 10	 mov	 QWORD PTR [rsp+16], rbp
  0000a	48 89 74 24 18	 mov	 QWORD PTR [rsp+24], rsi
  0000f	57		 push	 rdi
  00010	41 54		 push	 r12
  00012	41 55		 push	 r13
  00014	41 56		 push	 r14
  00016	41 57		 push	 r15
  00018	48 83 ec 40	 sub	 rsp, 64			; 00000040H

; 1098 :   size_t i = 0;
; 1099 :   if (tolen > 0 && depth == 0) to[0] = '\0';

  0001c	48 8b bc 24 90
	00 00 00	 mov	 rdi, QWORD PTR tolen$[rsp]
  00024	33 db		 xor	 ebx, ebx
  00026	44 8b bc 24 a0
	00 00 00	 mov	 r15d, DWORD PTR depth$[rsp]
  0002e	49 8b f1	 mov	 rsi, r9
  00031	49 8b e8	 mov	 rbp, r8
  00034	4c 8b f2	 mov	 r14, rdx
  00037	4c 8b e1	 mov	 r12, rcx
  0003a	48 85 ff	 test	 rdi, rdi
  0003d	74 0a		 je	 SHORT $LN4@mg_dns_par
  0003f	45 85 ff	 test	 r15d, r15d
  00042	75 05		 jne	 SHORT $LN4@mg_dns_par
  00044	41 88 19	 mov	 BYTE PTR [r9], bl

; 1121 :     }
; 1122 :     if (j + n < tolen) memcpy(&to[j], &s[ofs + i + 1], n);

  00047	eb 0a		 jmp	 SHORT $LN16@mg_dns_par
$LN4@mg_dns_par:

; 1100 :   if (depth > 5) return 0;

  00049	41 83 ff 05	 cmp	 r15d, 5
  0004d	0f 8f e7 00 00
	00		 jg	 $LN19@mg_dns_par
$LN16@mg_dns_par:

; 1101 :   // MG_INFO(("ofs %lx %x %x", (unsigned long) ofs, s[ofs], s[ofs + 1]));
; 1102 :   while (ofs + i + 1 < len) {

  00053	49 8d 40 01	 lea	 rax, QWORD PTR [r8+1]
  00057	49 3b c6	 cmp	 rax, r14
  0005a	0f 83 cb 00 00
	00		 jae	 $LN3@mg_dns_par
  00060	48 8b 8c 24 98
	00 00 00	 mov	 rcx, QWORD PTR j$[rsp]
$LL2@mg_dns_par:

; 1103 :     size_t n = s[ofs + i];

  00068	4a 8d 14 23	 lea	 rdx, QWORD PTR [rbx+r12]
  0006c	44 0f b6 04 2a	 movzx	 r8d, BYTE PTR [rdx+rbp]

; 1104 :     if (n == 0) {

  00071	4d 85 c0	 test	 r8, r8
  00074	0f 84 ae 00 00
	00		 je	 $LN17@mg_dns_par

; 1106 :       break;
; 1107 :     }
; 1108 :     if (n & 0xc0) {

  0007a	41 f6 c0 c0	 test	 r8b, 192		; 000000c0H
  0007e	75 5a		 jne	 SHORT $LN18@mg_dns_par

; 1116 :     }
; 1117 :     if (ofs + i + n + 1 >= len) return 0;

  00080	4d 8d 2c 18	 lea	 r13, QWORD PTR [r8+rbx]
  00084	48 8d 45 01	 lea	 rax, QWORD PTR [rbp+1]
  00088	49 03 c5	 add	 rax, r13
  0008b	49 3b c6	 cmp	 rax, r14
  0008e	0f 83 a6 00 00
	00		 jae	 $LN19@mg_dns_par

; 1118 :     if (j > 0) {

  00094	48 85 c9	 test	 rcx, rcx
  00097	74 0c		 je	 SHORT $LN10@mg_dns_par

; 1119 :       if (j < tolen) to[j] = '.';

  00099	48 3b cf	 cmp	 rcx, rdi
  0009c	73 04		 jae	 SHORT $LN11@mg_dns_par
  0009e	c6 04 0e 2e	 mov	 BYTE PTR [rsi+rcx], 46	; 0000002eH
$LN11@mg_dns_par:

; 1120 :       j++;

  000a2	48 ff c1	 inc	 rcx
$LN10@mg_dns_par:

; 1121 :     }
; 1122 :     if (j + n < tolen) memcpy(&to[j], &s[ofs + i + 1], n);

  000a5	49 8d 1c 08	 lea	 rbx, QWORD PTR [r8+rcx]
  000a9	48 3b df	 cmp	 rbx, rdi
  000ac	73 0e		 jae	 SHORT $LN22@mg_dns_par
  000ae	48 ff c2	 inc	 rdx
  000b1	48 03 ce	 add	 rcx, rsi
  000b4	48 03 d5	 add	 rdx, rbp
  000b7	e8 00 00 00 00	 call	 memcpy
$LN22@mg_dns_par:

; 1123 :     j += n;

  000bc	48 8b cb	 mov	 rcx, rbx

; 1124 :     i += n + 1;

  000bf	49 8d 5d 01	 lea	 rbx, QWORD PTR [r13+1]

; 1125 :     if (j < tolen) to[j] = '\0';  // Zero-terminate this chunk

  000c3	48 3b cf	 cmp	 rcx, rdi
  000c6	73 04		 jae	 SHORT $LN13@mg_dns_par
  000c8	c6 04 0e 00	 mov	 BYTE PTR [rsi+rcx], 0
$LN13@mg_dns_par:

; 1101 :   // MG_INFO(("ofs %lx %x %x", (unsigned long) ofs, s[ofs], s[ofs + 1]));
; 1102 :   while (ofs + i + 1 < len) {

  000cc	48 8d 45 01	 lea	 rax, QWORD PTR [rbp+1]
  000d0	48 03 c3	 add	 rax, rbx
  000d3	49 3b c6	 cmp	 rax, r14
  000d6	72 90		 jb	 SHORT $LL2@mg_dns_par

; 1116 :     }
; 1117 :     if (ofs + i + n + 1 >= len) return 0;

  000d8	eb 51		 jmp	 SHORT $LN3@mg_dns_par
$LN18@mg_dns_par:

; 1109 :       size_t ptr = (((n & 0x3f) << 8) | s[ofs + i + 1]);  // 12 is hdr len

  000da	0f b6 54 2a 01	 movzx	 edx, BYTE PTR [rdx+rbp+1]
  000df	41 83 e0 3f	 and	 r8d, 63			; 0000003fH
  000e3	49 c1 e0 08	 shl	 r8, 8
  000e7	49 0b d0	 or	 rdx, r8

; 1110 :       // MG_INFO(("PTR %lx", (unsigned long) ptr));
; 1111 :       if (ptr + 1 < len && (s[ptr] & 0xc0) == 0 &&

  000ea	48 8d 42 01	 lea	 rax, QWORD PTR [rdx+1]
  000ee	49 3b c6	 cmp	 rax, r14
  000f1	73 2f		 jae	 SHORT $LN8@mg_dns_par
  000f3	42 f6 04 22 c0	 test	 BYTE PTR [rdx+r12], 192	; 000000c0H
  000f8	75 28		 jne	 SHORT $LN8@mg_dns_par
  000fa	41 8d 47 01	 lea	 eax, DWORD PTR [r15+1]
  000fe	4c 8b c2	 mov	 r8, rdx
  00101	89 44 24 30	 mov	 DWORD PTR [rsp+48], eax
  00105	4c 8b ce	 mov	 r9, rsi
  00108	48 89 4c 24 28	 mov	 QWORD PTR [rsp+40], rcx
  0010d	49 8b d6	 mov	 rdx, r14
  00110	49 8b cc	 mov	 rcx, r12
  00113	48 89 7c 24 20	 mov	 QWORD PTR [rsp+32], rdi
  00118	e8 00 00 00 00	 call	 mg_dns_parse_name_depth
  0011d	48 85 c0	 test	 rax, rax
  00120	74 18		 je	 SHORT $LN19@mg_dns_par
$LN8@mg_dns_par:

; 1112 :           mg_dns_parse_name_depth(s, len, ptr, to, tolen, j, depth + 1) == 0)
; 1113 :         return 0;
; 1114 :       i += 2;

  00122	48 83 c3 02	 add	 rbx, 2

; 1115 :       break;

  00126	eb 03		 jmp	 SHORT $LN3@mg_dns_par
$LN17@mg_dns_par:

; 1105 :       i++;

  00128	48 ff c3	 inc	 rbx
$LN3@mg_dns_par:

; 1126 :     // MG_INFO(("--> [%s]", to));
; 1127 :   }
; 1128 :   if (tolen > 0) to[tolen - 1] = '\0';  // Make sure make sure it is nul-term

  0012b	48 85 ff	 test	 rdi, rdi
  0012e	74 05		 je	 SHORT $LN14@mg_dns_par
  00130	c6 44 3e ff 00	 mov	 BYTE PTR [rsi+rdi-1], 0
$LN14@mg_dns_par:

; 1129 :   return i;

  00135	48 8b c3	 mov	 rax, rbx
  00138	eb 02		 jmp	 SHORT $LN1@mg_dns_par
$LN19@mg_dns_par:

; 1116 :     }
; 1117 :     if (ofs + i + n + 1 >= len) return 0;

  0013a	33 c0		 xor	 eax, eax
$LN1@mg_dns_par:

; 1130 : }

  0013c	4c 8d 5c 24 40	 lea	 r11, QWORD PTR [rsp+64]
  00141	49 8b 5b 30	 mov	 rbx, QWORD PTR [r11+48]
  00145	49 8b 6b 38	 mov	 rbp, QWORD PTR [r11+56]
  00149	49 8b 73 40	 mov	 rsi, QWORD PTR [r11+64]
  0014d	49 8b e3	 mov	 rsp, r11
  00150	41 5f		 pop	 r15
  00152	41 5e		 pop	 r14
  00154	41 5d		 pop	 r13
  00156	41 5c		 pop	 r12
  00158	5f		 pop	 rdi
  00159	c3		 ret	 0
mg_dns_parse_name_depth ENDP
_TEXT	ENDS
; Function compile flags: /Ogspy
; File C:\Users\dev\source\repos\alpinevms\src\mongoose.c
;	COMDAT mg_dns_parse_name
_TEXT	SEGMENT
s$ = 80
n$ = 88
ofs$ = 96
dst$ = 104
dstlen$ = 112
mg_dns_parse_name PROC					; COMDAT

; 1133 :                                 char *dst, size_t dstlen) {

  00000	48 83 ec 48	 sub	 rsp, 72			; 00000048H

; 1134 :   return mg_dns_parse_name_depth(s, n, ofs, dst, dstlen, 0, 0);

  00004	83 64 24 30 00	 and	 DWORD PTR [rsp+48], 0
  00009	48 8b 44 24 70	 mov	 rax, QWORD PTR dstlen$[rsp]
  0000e	48 83 64 24 28
	00		 and	 QWORD PTR [rsp+40], 0
  00014	48 89 44 24 20	 mov	 QWORD PTR [rsp+32], rax
  00019	e8 00 00 00 00	 call	 mg_dns_parse_name_depth

; 1135 : }

  0001e	48 83 c4 48	 add	 rsp, 72			; 00000048H
  00022	c3		 ret	 0
mg_dns_parse_name ENDP
_TEXT	ENDS
; Function compile flags: /Ogspy
; File C:\Users\dev\source\repos\alpinevms\src\mongoose.c
;	COMDAT mg_dns_parse_rr
_TEXT	SEGMENT
buf$ = 80
len$ = 88
ofs$ = 96
is_question$ = 104
rr$ = 112
mg_dns_parse_rr PROC					; COMDAT

; 1138 :                        bool is_question, struct mg_dns_rr *rr) {

$LN22:
  00000	4c 8b dc	 mov	 r11, rsp
  00003	49 89 5b 08	 mov	 QWORD PTR [r11+8], rbx
  00007	49 89 6b 10	 mov	 QWORD PTR [r11+16], rbp
  0000b	49 89 73 18	 mov	 QWORD PTR [r11+24], rsi
  0000f	49 89 7b 20	 mov	 QWORD PTR [r11+32], rdi
  00013	41 56		 push	 r14
  00015	48 83 ec 40	 sub	 rsp, 64			; 00000040H

; 1139 :   const uint8_t *s = buf + ofs, *e = &buf[len];
; 1140 : 
; 1141 :   memset(rr, 0, sizeof(*rr));

  00019	48 8b 74 24 70	 mov	 rsi, QWORD PTR rr$[rsp]
  0001e	4a 8d 1c 01	 lea	 rbx, QWORD PTR [rcx+r8]
  00022	33 c0		 xor	 eax, eax
  00024	48 8d 3c 11	 lea	 rdi, QWORD PTR [rcx+rdx]
  00028	41 8a e9	 mov	 bpl, r9b
  0002b	48 89 06	 mov	 QWORD PTR [rsi], rax

; 1142 :   if (len < sizeof(struct mg_dns_header)) return 0;  // Too small

  0002e	48 8d 42 f4	 lea	 rax, QWORD PTR [rdx-12]
  00032	48 3d f4 01 00
	00		 cmp	 rax, 500		; 000001f4H
  00038	0f 87 9c 00 00
	00		 ja	 $LN13@mg_dns_par

; 1143 :   if (len > 512) return 0;  //  Too large, we don't expect that
; 1144 :   if (s >= e) return 0;     //  Overflow

  0003e	48 3b df	 cmp	 rbx, rdi
  00041	0f 83 93 00 00
	00		 jae	 $LN13@mg_dns_par

; 1134 :   return mg_dns_parse_name_depth(s, n, ofs, dst, dstlen, 0, 0);

  00047	45 33 f6	 xor	 r14d, r14d
  0004a	45 33 c9	 xor	 r9d, r9d
  0004d	45 89 73 e8	 mov	 DWORD PTR [r11-24], r14d
  00051	4d 89 73 e0	 mov	 QWORD PTR [r11-32], r14
  00055	4d 89 73 d8	 mov	 QWORD PTR [r11-40], r14
  00059	e8 00 00 00 00	 call	 mg_dns_parse_name_depth
  0005e	4c 8b c0	 mov	 r8, rax

; 1145 : 
; 1146 :   if ((rr->nlen = (uint16_t) mg_dns_parse_name(buf, len, ofs, NULL, 0)) == 0)

  00061	66 44 89 06	 mov	 WORD PTR [rsi], r8w
  00065	66 85 c0	 test	 ax, ax
  00068	74 70		 je	 SHORT $LN13@mg_dns_par

; 1147 :     return 0;
; 1148 :   s += rr->nlen + 4;

  0006a	41 0f b7 c0	 movzx	 eax, r8w
  0006e	48 83 c0 04	 add	 rax, 4
  00072	48 03 d8	 add	 rbx, rax

; 1149 :   if (s > e) return 0;

  00075	48 3b df	 cmp	 rbx, rdi
  00078	77 60		 ja	 SHORT $LN13@mg_dns_par

; 1150 :   rr->atype = (uint16_t) (((uint16_t) s[-4] << 8) | s[-3]);

  0007a	0f b6 53 fc	 movzx	 edx, BYTE PTR [rbx-4]
  0007e	0f b6 4b fd	 movzx	 ecx, BYTE PTR [rbx-3]
  00082	66 c1 e2 08	 shl	 dx, 8
  00086	66 0b d1	 or	 dx, cx

; 1151 :   rr->aclass = (uint16_t) (((uint16_t) s[-2] << 8) | s[-1]);

  00089	0f b6 4b ff	 movzx	 ecx, BYTE PTR [rbx-1]
  0008d	66 89 56 02	 mov	 WORD PTR [rsi+2], dx
  00091	0f b6 53 fe	 movzx	 edx, BYTE PTR [rbx-2]
  00095	66 c1 e2 08	 shl	 dx, 8
  00099	66 0b d1	 or	 dx, cx
  0009c	66 89 56 04	 mov	 WORD PTR [rsi+4], dx

; 1152 :   if (is_question) return (size_t) (rr->nlen + 4);

  000a0	40 84 ed	 test	 bpl, bpl
  000a3	75 37		 jne	 SHORT $LN1@mg_dns_par

; 1153 : 
; 1154 :   s += 6;

  000a5	48 83 c3 06	 add	 rbx, 6

; 1155 :   if (s > e) return 0;

  000a9	48 3b df	 cmp	 rbx, rdi
  000ac	77 2c		 ja	 SHORT $LN13@mg_dns_par

; 1156 :   rr->alen = (uint16_t) (((uint16_t) s[-2] << 8) | s[-1]);

  000ae	0f b6 43 ff	 movzx	 eax, BYTE PTR [rbx-1]
  000b2	0f b6 4b fe	 movzx	 ecx, BYTE PTR [rbx-2]
  000b6	66 c1 e1 08	 shl	 cx, 8
  000ba	66 0b c8	 or	 cx, ax
  000bd	0f b7 d1	 movzx	 edx, cx
  000c0	66 89 56 06	 mov	 WORD PTR [rsi+6], dx

; 1157 :   if (s + rr->alen > e) return 0;

  000c4	48 8d 04 1a	 lea	 rax, QWORD PTR [rdx+rbx]
  000c8	48 3b c7	 cmp	 rax, rdi
  000cb	77 0d		 ja	 SHORT $LN13@mg_dns_par

; 1158 :   return (size_t) (rr->nlen + rr->alen + 10);

  000cd	41 0f b7 c0	 movzx	 eax, r8w
  000d1	48 83 c0 0a	 add	 rax, 10
  000d5	48 03 c2	 add	 rax, rdx
  000d8	eb 02		 jmp	 SHORT $LN1@mg_dns_par
$LN13@mg_dns_par:

; 1157 :   if (s + rr->alen > e) return 0;

  000da	33 c0		 xor	 eax, eax
$LN1@mg_dns_par:

; 1159 : }

  000dc	48 8b 5c 24 50	 mov	 rbx, QWORD PTR [rsp+80]
  000e1	48 8b 6c 24 58	 mov	 rbp, QWORD PTR [rsp+88]
  000e6	48 8b 74 24 60	 mov	 rsi, QWORD PTR [rsp+96]
  000eb	48 8b 7c 24 68	 mov	 rdi, QWORD PTR [rsp+104]
  000f0	48 83 c4 40	 add	 rsp, 64			; 00000040H
  000f4	41 5e		 pop	 r14
  000f6	c3		 ret	 0
mg_dns_parse_rr ENDP
_TEXT	ENDS
; Function compile flags: /Ogspy
; File C:\Users\dev\source\repos\alpinevms\src\mongoose.c
;	COMDAT mg_dns_parse
_TEXT	SEGMENT
rr$ = 112
buf$ = 112
len$ = 120
dm$ = 128
mg_dns_parse PROC					; COMDAT

; 1161 : bool mg_dns_parse(const uint8_t *buf, size_t len, struct mg_dns_message *dm) {

$LN48:
  00000	48 89 5c 24 10	 mov	 QWORD PTR [rsp+16], rbx
  00005	48 89 6c 24 18	 mov	 QWORD PTR [rsp+24], rbp
  0000a	48 89 74 24 20	 mov	 QWORD PTR [rsp+32], rsi
  0000f	57		 push	 rdi
  00010	41 54		 push	 r12
  00012	41 55		 push	 r13
  00014	41 56		 push	 r14
  00016	41 57		 push	 r15
  00018	48 83 ec 40	 sub	 rsp, 64			; 00000040H
  0001c	49 8b d8	 mov	 rbx, r8
  0001f	4c 8b f2	 mov	 r14, rdx
  00022	48 8b f9	 mov	 rdi, rcx

; 1162 :   const struct mg_dns_header *h = (struct mg_dns_header *) buf;
; 1163 :   struct mg_dns_rr rr;
; 1164 :   size_t i, n, ofs = sizeof(*h);
; 1165 :   memset(dm, 0, sizeof(*dm));

  00025	33 d2		 xor	 edx, edx
  00027	48 8b cb	 mov	 rcx, rbx
  0002a	41 b8 18 01 00
	00		 mov	 r8d, 280		; 00000118H
  00030	be 0c 00 00 00	 mov	 esi, 12
  00035	e8 00 00 00 00	 call	 memset

; 1166 : 
; 1167 :   if (len < sizeof(*h)) return 0;                // Too small, headers dont fit

  0003a	4c 3b f6	 cmp	 r14, rsi
  0003d	0f 82 94 01 00
	00		 jb	 $LN32@mg_dns_par

; 13806:   memcpy(&data, &net, sizeof(data));

  00043	0f b7 47 04	 movzx	 eax, WORD PTR [rdi+4]

; 1168 :   if (mg_ntohs(h->num_questions) > 1) return 0;  // Sanity

  00047	44 8d 66 f5	 lea	 r12d, QWORD PTR [rsi-11]

; 13807:   return (uint16_t) ((uint16_t) data[1] | (((uint16_t) data[0]) << 8));

  0004b	0f b6 c8	 movzx	 ecx, al
  0004e	66 c1 e1 08	 shl	 cx, 8
  00052	66 c1 e8 08	 shr	 ax, 8
  00056	66 0b c8	 or	 cx, ax

; 1168 :   if (mg_ntohs(h->num_questions) > 1) return 0;  // Sanity

  00059	66 41 3b cc	 cmp	 cx, r12w
  0005d	0f 87 74 01 00
	00		 ja	 $LN32@mg_dns_par

; 13806:   memcpy(&data, &net, sizeof(data));

  00063	0f b7 4f 06	 movzx	 ecx, WORD PTR [rdi+6]

; 13807:   return (uint16_t) ((uint16_t) data[1] | (((uint16_t) data[0]) << 8));

  00067	0f b6 c1	 movzx	 eax, cl
  0006a	66 c1 e0 08	 shl	 ax, 8
  0006e	66 c1 e9 08	 shr	 cx, 8
  00072	66 0b c1	 or	 ax, cx

; 1169 :   if (mg_ntohs(h->num_answers) > 15) return 0;   // Sanity

  00075	66 83 f8 0f	 cmp	 ax, 15
  00079	0f 87 58 01 00
	00		 ja	 $LN32@mg_dns_par

; 13806:   memcpy(&data, &net, sizeof(data));

  0007f	0f b7 07	 movzx	 eax, WORD PTR [rdi]

; 1171 : 
; 1172 :   for (i = 0; i < mg_ntohs(h->num_questions); i++) {

  00082	45 33 ed	 xor	 r13d, r13d

; 13807:   return (uint16_t) ((uint16_t) data[1] | (((uint16_t) data[0]) << 8));

  00085	0f b6 c8	 movzx	 ecx, al

; 1171 : 
; 1172 :   for (i = 0; i < mg_ntohs(h->num_questions); i++) {

  00088	41 8b ed	 mov	 ebp, r13d

; 13807:   return (uint16_t) ((uint16_t) data[1] | (((uint16_t) data[0]) << 8));

  0008b	66 c1 e1 08	 shl	 cx, 8
  0008f	66 c1 e8 08	 shr	 ax, 8
  00093	66 0b c8	 or	 cx, ax

; 1170 :   dm->txnid = mg_ntohs(h->txnid);

  00096	66 89 0b	 mov	 WORD PTR [rbx], cx

; 13806:   memcpy(&data, &net, sizeof(data));

  00099	0f b7 47 04	 movzx	 eax, WORD PTR [rdi+4]

; 13807:   return (uint16_t) ((uint16_t) data[1] | (((uint16_t) data[0]) << 8));

  0009d	0f b6 c8	 movzx	 ecx, al
  000a0	66 c1 e1 08	 shl	 cx, 8
  000a4	66 c1 e8 08	 shr	 ax, 8
  000a8	66 0b c8	 or	 cx, ax

; 1171 : 
; 1172 :   for (i = 0; i < mg_ntohs(h->num_questions); i++) {

  000ab	66 44 3b e9	 cmp	 r13w, cx
  000af	73 44		 jae	 SHORT $LN3@mg_dns_par
$LL4@mg_dns_par:

; 1173 :     if ((n = mg_dns_parse_rr(buf, len, ofs, true, &rr)) == 0) return false;

  000b1	48 8d 44 24 70	 lea	 rax, QWORD PTR rr$[rsp]
  000b6	45 8a cc	 mov	 r9b, r12b
  000b9	4c 8b c6	 mov	 r8, rsi
  000bc	48 89 44 24 20	 mov	 QWORD PTR [rsp+32], rax
  000c1	49 8b d6	 mov	 rdx, r14
  000c4	48 8b cf	 mov	 rcx, rdi
  000c7	e8 00 00 00 00	 call	 mg_dns_parse_rr
  000cc	48 85 c0	 test	 rax, rax
  000cf	0f 84 02 01 00
	00		 je	 $LN32@mg_dns_par

; 13806:   memcpy(&data, &net, sizeof(data));

  000d5	0f b7 57 04	 movzx	 edx, WORD PTR [rdi+4]

; 1174 :     // MG_INFO(("Q %lu %lu %hu/%hu", ofs, n, rr.atype, rr.aclass));
; 1175 :     ofs += n;

  000d9	48 03 f0	 add	 rsi, rax

; 13807:   return (uint16_t) ((uint16_t) data[1] | (((uint16_t) data[0]) << 8));

  000dc	0f b6 c2	 movzx	 eax, dl

; 1171 : 
; 1172 :   for (i = 0; i < mg_ntohs(h->num_questions); i++) {

  000df	49 03 ec	 add	 rbp, r12

; 13807:   return (uint16_t) ((uint16_t) data[1] | (((uint16_t) data[0]) << 8));

  000e2	66 c1 e0 08	 shl	 ax, 8
  000e6	48 c1 ea 08	 shr	 rdx, 8
  000ea	0f b7 c8	 movzx	 ecx, ax
  000ed	48 0b ca	 or	 rcx, rdx

; 1171 : 
; 1172 :   for (i = 0; i < mg_ntohs(h->num_questions); i++) {

  000f0	48 3b e9	 cmp	 rbp, rcx
  000f3	72 bc		 jb	 SHORT $LL4@mg_dns_par
$LN3@mg_dns_par:

; 13806:   memcpy(&data, &net, sizeof(data));

  000f5	0f b7 47 06	 movzx	 eax, WORD PTR [rdi+6]

; 1176 :   }
; 1177 :   for (i = 0; i < mg_ntohs(h->num_answers); i++) {

  000f9	49 8b ed	 mov	 rbp, r13

; 13807:   return (uint16_t) ((uint16_t) data[1] | (((uint16_t) data[0]) << 8));

  000fc	0f b6 c8	 movzx	 ecx, al
  000ff	66 c1 e1 08	 shl	 cx, 8
  00103	66 c1 e8 08	 shr	 ax, 8
  00107	66 0b c8	 or	 cx, ax

; 1176 :   }
; 1177 :   for (i = 0; i < mg_ntohs(h->num_answers); i++) {

  0010a	66 44 3b e9	 cmp	 r13w, cx
$LN45@mg_dns_par:

; 1178 :     if ((n = mg_dns_parse_rr(buf, len, ofs, false, &rr)) == 0) return false;

  0010e	0f 83 be 00 00
	00		 jae	 $LN44@mg_dns_par
  00114	48 8d 44 24 70	 lea	 rax, QWORD PTR rr$[rsp]
  00119	45 33 c9	 xor	 r9d, r9d
  0011c	4c 8b c6	 mov	 r8, rsi
  0011f	48 89 44 24 20	 mov	 QWORD PTR [rsp+32], rax
  00124	49 8b d6	 mov	 rdx, r14
  00127	48 8b cf	 mov	 rcx, rdi
  0012a	e8 00 00 00 00	 call	 mg_dns_parse_rr
  0012f	4c 8b f8	 mov	 r15, rax
  00132	48 85 c0	 test	 rax, rax
  00135	0f 84 9c 00 00
	00		 je	 $LN32@mg_dns_par

; 1134 :   return mg_dns_parse_name_depth(s, n, ofs, dst, dstlen, 0, 0);

  0013b	44 89 6c 24 30	 mov	 DWORD PTR [rsp+48], r13d

; 1179 :     // MG_INFO(("A -- %lu %lu %hu/%hu %s", ofs, n, rr.atype, rr.aclass,
; 1180 :     // dm->name));
; 1181 :     mg_dns_parse_name(buf, len, ofs, dm->name, sizeof(dm->name));

  00140	4c 8d 4b 18	 lea	 r9, QWORD PTR [rbx+24]

; 1134 :   return mg_dns_parse_name_depth(s, n, ofs, dst, dstlen, 0, 0);

  00144	4c 89 6c 24 28	 mov	 QWORD PTR [rsp+40], r13
  00149	4c 8b c6	 mov	 r8, rsi
  0014c	49 8b d6	 mov	 rdx, r14
  0014f	48 c7 44 24 20
	00 01 00 00	 mov	 QWORD PTR [rsp+32], 256	; 00000100H
  00158	48 8b cf	 mov	 rcx, rdi
  0015b	e8 00 00 00 00	 call	 mg_dns_parse_name_depth

; 1182 :     ofs += n;

  00160	49 03 f7	 add	 rsi, r15

; 1183 : 
; 1184 :     if (rr.alen == 4 && rr.atype == 1 && rr.aclass == 1) {

  00163	66 83 7c 24 76
	04		 cmp	 WORD PTR rr$[rsp+6], 4
  00169	75 10		 jne	 SHORT $LN13@mg_dns_par
  0016b	66 44 39 64 24
	72		 cmp	 WORD PTR rr$[rsp+2], r12w
  00171	75 20		 jne	 SHORT $LN5@mg_dns_par
  00173	66 44 39 64 24
	74		 cmp	 WORD PTR rr$[rsp+4], r12w
  00179	74 38		 je	 SHORT $LN33@mg_dns_par
$LN13@mg_dns_par:

; 1189 :     } else if (rr.alen == 16 && rr.atype == 28 && rr.aclass == 1) {

  0017b	66 83 7c 24 76
	10		 cmp	 WORD PTR rr$[rsp+6], 16
  00181	75 10		 jne	 SHORT $LN5@mg_dns_par
  00183	66 83 7c 24 72
	1c		 cmp	 WORD PTR rr$[rsp+2], 28
  00189	75 08		 jne	 SHORT $LN5@mg_dns_par
  0018b	66 44 39 64 24
	74		 cmp	 WORD PTR rr$[rsp+4], r12w
  00191	74 2d		 je	 SHORT $LN34@mg_dns_par
$LN5@mg_dns_par:

; 13806:   memcpy(&data, &net, sizeof(data));

  00193	0f b7 57 06	 movzx	 edx, WORD PTR [rdi+6]

; 1176 :   }
; 1177 :   for (i = 0; i < mg_ntohs(h->num_answers); i++) {

  00197	49 03 ec	 add	 rbp, r12

; 13807:   return (uint16_t) ((uint16_t) data[1] | (((uint16_t) data[0]) << 8));

  0019a	0f b6 c2	 movzx	 eax, dl
  0019d	66 c1 e0 08	 shl	 ax, 8
  001a1	48 c1 ea 08	 shr	 rdx, 8
  001a5	0f b7 c8	 movzx	 ecx, ax
  001a8	48 0b ca	 or	 rcx, rdx

; 1176 :   }
; 1177 :   for (i = 0; i < mg_ntohs(h->num_answers); i++) {

  001ab	48 3b e9	 cmp	 rbp, rcx
  001ae	e9 5b ff ff ff	 jmp	 $LN45@mg_dns_par
$LN33@mg_dns_par:

; 1185 :       dm->addr.is_ip6 = false;

  001b3	44 88 6b 17	 mov	 BYTE PTR [rbx+23], r13b

; 1186 :       memcpy(&dm->addr.ip, &buf[ofs - 4], 4);

  001b7	8b 44 3e fc	 mov	 eax, DWORD PTR [rsi+rdi-4]
  001bb	89 43 04	 mov	 DWORD PTR [rbx+4], eax

; 1187 :       dm->resolved = true;
; 1188 :       break;  // Return success

  001be	eb 0e		 jmp	 SHORT $LN46@mg_dns_par
$LN34@mg_dns_par:

; 1190 :       dm->addr.is_ip6 = true;

  001c0	44 88 63 17	 mov	 BYTE PTR [rbx+23], r12b

; 1191 :       memcpy(&dm->addr.ip, &buf[ofs - 16], 16);

  001c4	0f 10 44 3e f0	 movups	 xmm0, XMMWORD PTR [rsi+rdi-16]
  001c9	f3 0f 7f 43 04	 movdqu	 XMMWORD PTR [rbx+4], xmm0
$LN46@mg_dns_par:

; 1192 :       dm->resolved = true;
; 1193 :       break;  // Return success
; 1194 :     }
; 1195 :   }
; 1196 :   return true;

  001ce	44 88 63 02	 mov	 BYTE PTR [rbx+2], r12b
$LN44@mg_dns_par:
  001d2	41 8a c4	 mov	 al, r12b
  001d5	eb 02		 jmp	 SHORT $LN1@mg_dns_par
$LN32@mg_dns_par:

; 1178 :     if ((n = mg_dns_parse_rr(buf, len, ofs, false, &rr)) == 0) return false;

  001d7	32 c0		 xor	 al, al
$LN1@mg_dns_par:

; 1197 : }

  001d9	4c 8d 5c 24 40	 lea	 r11, QWORD PTR [rsp+64]
  001de	49 8b 5b 38	 mov	 rbx, QWORD PTR [r11+56]
  001e2	49 8b 6b 40	 mov	 rbp, QWORD PTR [r11+64]
  001e6	49 8b 73 48	 mov	 rsi, QWORD PTR [r11+72]
  001ea	49 8b e3	 mov	 rsp, r11
  001ed	41 5f		 pop	 r15
  001ef	41 5e		 pop	 r14
  001f1	41 5d		 pop	 r13
  001f3	41 5c		 pop	 r12
  001f5	5f		 pop	 rdi
  001f6	c3		 ret	 0
mg_dns_parse ENDP
_TEXT	ENDS
; Function compile flags: /Ogspy
; File C:\Users\dev\source\repos\alpinevms\src\mongoose.c
;	COMDAT dns_cb
_TEXT	SEGMENT
dm$1 = 48
c$ = 368
ev$ = 376
ev_data$ = 384
dns_cb	PROC						; COMDAT

; 1199 : static void dns_cb(struct mg_connection *c, int ev, void *ev_data) {

  00000	48 89 5c 24 08	 mov	 QWORD PTR [rsp+8], rbx
  00005	48 89 6c 24 10	 mov	 QWORD PTR [rsp+16], rbp
  0000a	48 89 74 24 18	 mov	 QWORD PTR [rsp+24], rsi
  0000f	57		 push	 rdi
  00010	41 56		 push	 r14
  00012	41 57		 push	 r15
  00014	48 81 ec 50 01
	00 00		 sub	 rsp, 336		; 00000150H

; 1200 :   struct dns_data *d, *tmp;
; 1201 :   struct dns_data **head = (struct dns_data **) &c->mgr->active_dns_requests;

  0001b	48 8b 79 08	 mov	 rdi, QWORD PTR [rcx+8]
  0001f	48 8b f1	 mov	 rsi, rcx

; 1202 :   if (ev == MG_EV_POLL) {

  00022	83 fa 02	 cmp	 edx, 2
  00025	75 36		 jne	 SHORT $LN23@dns_cb

; 1203 :     uint64_t now = *(uint64_t *) ev_data;
; 1204 :     for (d = *head; d != NULL; d = tmp) {

  00027	48 8b 4f 50	 mov	 rcx, QWORD PTR [rdi+80]
  0002b	49 8b 30	 mov	 rsi, QWORD PTR [r8]
  0002e	48 85 c9	 test	 rcx, rcx
  00031	0f 84 33 02 00
	00		 je	 $LN21@dns_cb
$LL4@dns_cb:

; 1205 :       tmp = d->next;

  00037	48 8b 19	 mov	 rbx, QWORD PTR [rcx]

; 1206 :       // MG_DEBUG ("%lu %lu dns poll", d->expire, now));
; 1207 :       if (now > d->expire) mg_error(d->c, "DNS timeout");

  0003a	48 3b 71 10	 cmp	 rsi, QWORD PTR [rcx+16]
  0003e	76 10		 jbe	 SHORT $LN2@dns_cb
  00040	48 8b 49 08	 mov	 rcx, QWORD PTR [rcx+8]
  00044	48 8d 15 00 00
	00 00		 lea	 rdx, OFFSET FLAT:??_C@_0M@EKADLLOH@DNS?5timeout@
  0004b	e8 00 00 00 00	 call	 mg_error
$LN2@dns_cb:

; 1203 :     uint64_t now = *(uint64_t *) ev_data;
; 1204 :     for (d = *head; d != NULL; d = tmp) {

  00050	48 8b cb	 mov	 rcx, rbx
  00053	48 85 db	 test	 rbx, rbx
  00056	75 df		 jne	 SHORT $LL4@dns_cb

; 1208 :     }
; 1209 :   } else if (ev == MG_EV_READ) {

  00058	e9 0d 02 00 00	 jmp	 $LN21@dns_cb
$LN23@dns_cb:
  0005d	83 fa 07	 cmp	 edx, 7
  00060	0f 85 b1 01 00
	00		 jne	 $LN26@dns_cb

; 1210 :     struct mg_dns_message dm;
; 1211 :     int resolved = 0;
; 1212 :     if (mg_dns_parse(c->recv.buf, c->recv.len, &dm) == false) {

  00066	48 8b 51 58	 mov	 rdx, QWORD PTR [rcx+88]
  0006a	4c 8d 44 24 30	 lea	 r8, QWORD PTR dm$1[rsp]
  0006f	48 8b 49 48	 mov	 rcx, QWORD PTR [rcx+72]
  00073	33 ed		 xor	 ebp, ebp
  00075	e8 00 00 00 00	 call	 mg_dns_parse
  0007a	44 8d 7d 01	 lea	 r15d, QWORD PTR [rbp+1]
  0007e	84 c0		 test	 al, al
  00080	75 3c		 jne	 SHORT $LN28@dns_cb

; 1213 :       MG_ERROR(("Unexpected DNS response:"));

  00082	44 39 3d 00 00
	00 00		 cmp	 DWORD PTR mg_log_level, r15d
  00089	7c 21		 jl	 SHORT $LN5@dns_cb
  0008b	4c 8d 0d 00 00
	00 00		 lea	 r9, OFFSET FLAT:??_C@_06BPNCNPOK@dns_cb@
  00092	41 b8 bd 04 00
	00		 mov	 r8d, 1213		; 000004bdH
  00098	41 8b cf	 mov	 ecx, r15d
  0009b	e8 00 00 00 00	 call	 mg_log_prefix
  000a0	48 8d 0d 00 00
	00 00		 lea	 rcx, OFFSET FLAT:??_C@_0BJ@COKDKGDG@Unexpected?5DNS?5response?3@
  000a7	e8 00 00 00 00	 call	 mg_log
$LN5@dns_cb:

; 1214 :       mg_hexdump(c->recv.buf, c->recv.len);

  000ac	48 8b 56 58	 mov	 rdx, QWORD PTR [rsi+88]
  000b0	48 8b 4e 48	 mov	 rcx, QWORD PTR [rsi+72]
  000b4	e8 00 00 00 00	 call	 mg_hexdump

; 1215 :     } else {

  000b9	e9 28 01 00 00	 jmp	 $LN76@dns_cb
$LN28@dns_cb:

; 1216 :       // MG_VERBOSE(("%s %d", dm.name, dm.resolved));
; 1217 :       for (d = *head; d != NULL; d = tmp) {

  000be	48 8b 5f 50	 mov	 rbx, QWORD PTR [rdi+80]
  000c2	48 85 db	 test	 rbx, rbx
  000c5	0f 84 1b 01 00
	00		 je	 $LN76@dns_cb
$LL10@dns_cb:

; 1218 :         tmp = d->next;
; 1219 :         // MG_INFO(("d %p %hu %hu", d, d->txnid, dm.txnid));
; 1220 :         if (dm.txnid != d->txnid) continue;

  000cb	0f b7 43 18	 movzx	 eax, WORD PTR [rbx+24]
  000cf	4c 8b 33	 mov	 r14, QWORD PTR [rbx]
  000d2	66 39 44 24 30	 cmp	 WORD PTR dm$1[rsp], ax
  000d7	0f 85 f9 00 00
	00		 jne	 $LN8@dns_cb

; 1221 :         if (d->c->is_resolving) {

  000dd	48 8b 4b 08	 mov	 rcx, QWORD PTR [rbx+8]
  000e1	f6 81 10 01 00
	00 08		 test	 BYTE PTR [rcx+272], 8
  000e8	0f 84 8a 00 00
	00		 je	 $LN16@dns_cb

; 1222 :           if (dm.resolved) {

  000ee	80 7c 24 32 00	 cmp	 BYTE PTR dm$1[rsp+2], 0
  000f3	74 70		 je	 SHORT $LN34@dns_cb

; 1223 :             dm.addr.port = d->c->rem.port;  // Save port
; 1224 :             d->c->rem = dm.addr;            // Copy resolved address
; 1225 :             MG_DEBUG(

  000f5	83 3d 00 00 00
	00 03		 cmp	 DWORD PTR mg_log_level, 3
  000fc	0f b7 41 34	 movzx	 eax, WORD PTR [rcx+52]
  00100	0f 10 44 24 34	 movups	 xmm0, XMMWORD PTR dm$1[rsp+4]
  00105	66 89 44 24 44	 mov	 WORD PTR dm$1[rsp+20], ax
  0010a	48 8b 4b 08	 mov	 rcx, QWORD PTR [rbx+8]
  0010e	0f 11 41 24	 movups	 XMMWORD PTR [rcx+36], xmm0
  00112	8b 44 24 44	 mov	 eax, DWORD PTR dm$1[rsp+20]
  00116	89 41 34	 mov	 DWORD PTR [rcx+52], eax
  00119	7c 3f		 jl	 SHORT $LN11@dns_cb
  0011b	4c 8d 0d 00 00
	00 00		 lea	 r9, OFFSET FLAT:??_C@_06BPNCNPOK@dns_cb@
  00122	b9 03 00 00 00	 mov	 ecx, 3
  00127	41 b8 ca 04 00
	00		 mov	 r8d, 1226		; 000004caH
  0012d	e8 00 00 00 00	 call	 mg_log_prefix
  00132	48 8b 4b 08	 mov	 rcx, QWORD PTR [rbx+8]
  00136	4c 8d 0d 00 00
	00 00		 lea	 r9, OFFSET FLAT:mg_print_ip
  0013d	4c 8d 44 24 48	 lea	 r8, QWORD PTR dm$1[rsp+24]
  00142	8b 51 40	 mov	 edx, DWORD PTR [rcx+64]
  00145	48 8d 41 24	 lea	 rax, QWORD PTR [rcx+36]
  00149	48 8d 0d 00 00
	00 00		 lea	 rcx, OFFSET FLAT:??_C@_0N@NMEECLIA@?$CFlu?5?$CFs?5is?5?$CFM@
  00150	48 89 44 24 20	 mov	 QWORD PTR [rsp+32], rax
  00155	e8 00 00 00 00	 call	 mg_log
$LN11@dns_cb:

; 1226 :                 ("%lu %s is %M", d->c->id, dm.name, mg_print_ip, &d->c->rem));
; 1227 :             mg_connect_resolved(d->c);

  0015a	48 8b 4b 08	 mov	 rcx, QWORD PTR [rbx+8]
  0015e	e8 00 00 00 00	 call	 mg_connect_resolved

; 1228 : #if MG_ENABLE_IPV6
; 1229 :           } else if (dm.addr.is_ip6 == false && dm.name[0] != '\0' &&
; 1230 :                      c->mgr->use_dns6 == false) {
; 1231 :             struct mg_str x = mg_str(dm.name);
; 1232 :             mg_sendnsreq(d->c, &x, c->mgr->dnstimeout, &c->mgr->dns6, true);
; 1233 : #endif
; 1234 :           } else {

  00163	eb 44		 jmp	 SHORT $LN15@dns_cb
$LN34@dns_cb:

; 1235 :             mg_error(d->c, "%s DNS lookup failed", dm.name);

  00165	4c 8d 44 24 48	 lea	 r8, QWORD PTR dm$1[rsp+24]
  0016a	48 8d 15 00 00
	00 00		 lea	 rdx, OFFSET FLAT:??_C@_0BF@BIFAMDJJ@?$CFs?5DNS?5lookup?5failed@
  00171	e8 00 00 00 00	 call	 mg_error

; 1236 :           }
; 1237 :         } else {

  00176	eb 31		 jmp	 SHORT $LN15@dns_cb
$LN16@dns_cb:

; 1238 :           MG_ERROR(("%lu already resolved", d->c->id));

  00178	44 39 3d 00 00
	00 00		 cmp	 DWORD PTR mg_log_level, r15d
  0017f	7c 28		 jl	 SHORT $LN15@dns_cb
  00181	4c 8d 0d 00 00
	00 00		 lea	 r9, OFFSET FLAT:??_C@_06BPNCNPOK@dns_cb@
  00188	41 b8 d6 04 00
	00		 mov	 r8d, 1238		; 000004d6H
  0018e	41 8b cf	 mov	 ecx, r15d
  00191	e8 00 00 00 00	 call	 mg_log_prefix
  00196	48 8b 43 08	 mov	 rax, QWORD PTR [rbx+8]
  0019a	48 8d 0d 00 00
	00 00		 lea	 rcx, OFFSET FLAT:??_C@_0BF@ICMAECGD@?$CFlu?5already?5resolved@
  001a1	8b 50 40	 mov	 edx, DWORD PTR [rax+64]
  001a4	e8 00 00 00 00	 call	 mg_log
$LN15@dns_cb:

; 1082 :   LIST_DELETE(struct dns_data, head, d);

  001a9	48 8b 4f 50	 mov	 rcx, QWORD PTR [rdi+80]
  001ad	48 8d 57 50	 lea	 rdx, QWORD PTR [rdi+80]
  001b1	48 3b cb	 cmp	 rcx, rbx
  001b4	74 0e		 je	 SHORT $LN54@dns_cb
$LL53@dns_cb:
  001b6	48 8b 01	 mov	 rax, QWORD PTR [rcx]
  001b9	48 8b d1	 mov	 rdx, rcx
  001bc	48 8b c8	 mov	 rcx, rax
  001bf	48 3b c3	 cmp	 rax, rbx
  001c2	75 f2		 jne	 SHORT $LL53@dns_cb
$LN54@dns_cb:
  001c4	48 8b 03	 mov	 rax, QWORD PTR [rbx]

; 1083 :   free(d);

  001c7	48 8b cb	 mov	 rcx, rbx
  001ca	48 89 02	 mov	 QWORD PTR [rdx], rax
  001cd	ff 15 00 00 00
	00		 call	 QWORD PTR __imp_free

; 1239 :         }
; 1240 :         mg_dns_free(head, d);
; 1241 :         resolved = 1;

  001d3	41 8b ef	 mov	 ebp, r15d
$LN8@dns_cb:

; 1216 :       // MG_VERBOSE(("%s %d", dm.name, dm.resolved));
; 1217 :       for (d = *head; d != NULL; d = tmp) {

  001d6	49 8b de	 mov	 rbx, r14
  001d9	4d 85 f6	 test	 r14, r14
  001dc	0f 85 e9 fe ff
	ff		 jne	 $LL10@dns_cb

; 1242 :       }
; 1243 :     }
; 1244 :     if (!resolved) MG_ERROR(("stray DNS reply"));

  001e2	85 ed		 test	 ebp, ebp
  001e4	75 2a		 jne	 SHORT $LN18@dns_cb
$LN76@dns_cb:
  001e6	44 39 3d 00 00
	00 00		 cmp	 DWORD PTR mg_log_level, r15d
  001ed	7c 21		 jl	 SHORT $LN18@dns_cb
  001ef	4c 8d 0d 00 00
	00 00		 lea	 r9, OFFSET FLAT:??_C@_06BPNCNPOK@dns_cb@
  001f6	41 b8 dc 04 00
	00		 mov	 r8d, 1244		; 000004dcH
  001fc	41 8b cf	 mov	 ecx, r15d
  001ff	e8 00 00 00 00	 call	 mg_log_prefix
  00204	48 8d 0d 00 00
	00 00		 lea	 rcx, OFFSET FLAT:??_C@_0BA@NIPDPKGJ@stray?5DNS?5reply@
  0020b	e8 00 00 00 00	 call	 mg_log
$LN18@dns_cb:

; 1245 :     c->recv.len = 0;

  00210	48 83 66 58 00	 and	 QWORD PTR [rsi+88], 0
  00215	eb 53		 jmp	 SHORT $LN21@dns_cb
$LN26@dns_cb:

; 1246 :   } else if (ev == MG_EV_CLOSE) {

  00217	83 fa 09	 cmp	 edx, 9
  0021a	75 4e		 jne	 SHORT $LN21@dns_cb

; 1247 :     for (d = *head; d != NULL; d = tmp) {

  0021c	48 8b 5f 50	 mov	 rbx, QWORD PTR [rdi+80]
  00220	48 85 db	 test	 rbx, rbx
  00223	74 45		 je	 SHORT $LN21@dns_cb
$LL22@dns_cb:

; 1248 :       tmp = d->next;
; 1249 :       mg_error(d->c, "DNS error");

  00225	48 8b 4b 08	 mov	 rcx, QWORD PTR [rbx+8]
  00229	48 8d 15 00 00
	00 00		 lea	 rdx, OFFSET FLAT:??_C@_09MNPPPHEH@DNS?5error@
  00230	48 8b 33	 mov	 rsi, QWORD PTR [rbx]
  00233	e8 00 00 00 00	 call	 mg_error

; 1082 :   LIST_DELETE(struct dns_data, head, d);

  00238	48 8b 4f 50	 mov	 rcx, QWORD PTR [rdi+80]
  0023c	48 8d 57 50	 lea	 rdx, QWORD PTR [rdi+80]
  00240	48 3b cb	 cmp	 rcx, rbx
  00243	74 0e		 je	 SHORT $LN47@dns_cb
$LL46@dns_cb:
  00245	48 8b 01	 mov	 rax, QWORD PTR [rcx]
  00248	48 8b d1	 mov	 rdx, rcx
  0024b	48 8b c8	 mov	 rcx, rax
  0024e	48 3b c3	 cmp	 rax, rbx
  00251	75 f2		 jne	 SHORT $LL46@dns_cb
$LN47@dns_cb:
  00253	48 8b 03	 mov	 rax, QWORD PTR [rbx]

; 1083 :   free(d);

  00256	48 8b cb	 mov	 rcx, rbx
  00259	48 89 02	 mov	 QWORD PTR [rdx], rax
  0025c	ff 15 00 00 00
	00		 call	 QWORD PTR __imp_free

; 1247 :     for (d = *head; d != NULL; d = tmp) {

  00262	48 8b de	 mov	 rbx, rsi
  00265	48 85 f6	 test	 rsi, rsi
  00268	75 bb		 jne	 SHORT $LL22@dns_cb
$LN21@dns_cb:

; 1250 :       mg_dns_free(head, d);
; 1251 :     }
; 1252 :   }
; 1253 : }

  0026a	4c 8d 9c 24 50
	01 00 00	 lea	 r11, QWORD PTR [rsp+336]
  00272	49 8b 5b 20	 mov	 rbx, QWORD PTR [r11+32]
  00276	49 8b 6b 28	 mov	 rbp, QWORD PTR [r11+40]
  0027a	49 8b 73 30	 mov	 rsi, QWORD PTR [r11+48]
  0027e	49 8b e3	 mov	 rsp, r11
  00281	41 5f		 pop	 r15
  00283	41 5e		 pop	 r14
  00285	5f		 pop	 rdi
  00286	c3		 ret	 0
dns_cb	ENDP
_TEXT	ENDS
; Function compile flags: /Ogspy
; File C:\Users\dev\source\repos\alpinevms\src\mongoose.c
;	COMDAT mg_dns_send
_TEXT	SEGMENT
pkt$ = 32
c$ = 336
name$ = 344
txnid$ = 352
ipv6$ = 360
mg_dns_send PROC					; COMDAT

; 1256 :                         uint16_t txnid, bool ipv6) {

  00000	48 89 5c 24 08	 mov	 QWORD PTR [rsp+8], rbx
  00005	48 89 6c 24 10	 mov	 QWORD PTR [rsp+16], rbp
  0000a	48 89 74 24 18	 mov	 QWORD PTR [rsp+24], rsi
  0000f	57		 push	 rdi
  00010	41 56		 push	 r14
  00012	41 57		 push	 r15
  00014	48 81 ec 30 01
	00 00		 sub	 rsp, 304		; 00000130H
  0001b	41 0f b7 d8	 movzx	 ebx, r8w
  0001f	48 8b fa	 mov	 rdi, rdx
  00022	4c 8b f9	 mov	 r15, rcx

; 1257 :   struct {
; 1258 :     struct mg_dns_header header;
; 1259 :     uint8_t data[256];
; 1260 :   } pkt;
; 1261 :   size_t i, n;
; 1262 :   memset(&pkt, 0, sizeof(pkt));

  00025	33 d2		 xor	 edx, edx
  00027	41 b8 06 01 00
	00		 mov	 r8d, 262		; 00000106H
  0002d	48 8d 4c 24 26	 lea	 rcx, QWORD PTR pkt$[rsp+6]
  00032	41 8a e9	 mov	 bpl, r9b
  00035	e8 00 00 00 00	 call	 memset

; 1267 :     if (name->ptr[i] == '.' || i >= name->len) {

  0003a	4c 8b 37	 mov	 r14, QWORD PTR [rdi]
  0003d	33 c9		 xor	 ecx, ecx

; 1271 :     }
; 1272 :     if (i >= name->len) break;

  0003f	48 8b 77 08	 mov	 rsi, QWORD PTR [rdi+8]

; 13807:   return (uint16_t) ((uint16_t) data[1] | (((uint16_t) data[0]) << 8));

  00043	0f b6 c3	 movzx	 eax, bl
  00046	66 c1 e0 08	 shl	 ax, 8
  0004a	66 c1 eb 08	 shr	 bx, 8
  0004e	66 0b c3	 or	 ax, bx

; 1263 :   pkt.header.txnid = mg_htons(txnid);
; 1264 :   pkt.header.flags = mg_htons(0x100);

  00051	c7 44 24 22 01
	00 00 01	 mov	 DWORD PTR pkt$[rsp+2], 16777217 ; 01000001H
  00059	66 89 44 24 20	 mov	 WORD PTR pkt$[rsp], ax

; 1265 :   pkt.header.num_questions = mg_htons(1);
; 1266 :   for (i = n = 0; i < sizeof(pkt.data) - 5; i++) {

  0005e	33 db		 xor	 ebx, ebx
$LL4@mg_dns_sen:

; 1267 :     if (name->ptr[i] == '.' || i >= name->len) {

  00060	48 8d 7b 01	 lea	 rdi, QWORD PTR [rbx+1]
  00064	41 80 7c 3e ff
	2e		 cmp	 BYTE PTR [r14+rdi-1], 46 ; 0000002eH
  0006a	74 05		 je	 SHORT $LN6@mg_dns_sen
  0006c	48 3b de	 cmp	 rbx, rsi
  0006f	72 27		 jb	 SHORT $LN22@mg_dns_sen
$LN6@mg_dns_sen:

; 1268 :       pkt.data[n] = (uint8_t) (i - n);

  00071	8a c3		 mov	 al, bl

; 1269 :       memcpy(&pkt.data[n + 1], name->ptr + n, i - n);

  00073	49 8d 14 0e	 lea	 rdx, QWORD PTR [r14+rcx]
  00077	2a c1		 sub	 al, cl
  00079	4c 8b c3	 mov	 r8, rbx
  0007c	88 44 0c 2c	 mov	 BYTE PTR pkt$[rsp+rcx+12], al
  00080	4c 2b c1	 sub	 r8, rcx
  00083	48 8d 44 24 2d	 lea	 rax, QWORD PTR pkt$[rsp+13]
  00088	48 03 c8	 add	 rcx, rax
  0008b	e8 00 00 00 00	 call	 memcpy

; 1270 :       n = i + 1;

  00090	48 8b cf	 mov	 rcx, rdi

; 1271 :     }
; 1272 :     if (i >= name->len) break;

  00093	48 3b de	 cmp	 rbx, rsi
  00096	73 0c		 jae	 SHORT $LN17@mg_dns_sen
$LN22@mg_dns_sen:

; 1265 :   pkt.header.num_questions = mg_htons(1);
; 1266 :   for (i = n = 0; i < sizeof(pkt.data) - 5; i++) {

  00098	48 8b df	 mov	 rbx, rdi
  0009b	48 81 ff fb 00
	00 00		 cmp	 rdi, 251		; 000000fbH
  000a2	72 bc		 jb	 SHORT $LL4@mg_dns_sen
$LN17@mg_dns_sen:

; 1273 :   }
; 1274 :   memcpy(&pkt.data[n], "\x00\x00\x01\x00\x01", 5);  // A query

  000a4	8b 05 00 00 00
	00		 mov	 eax, DWORD PTR ??_C@_05OPJKAIHI@?$AA?$AA?$AB?$AA?$AB@
  000aa	89 44 0c 2c	 mov	 DWORD PTR pkt$[rsp+rcx+12], eax
  000ae	8a 05 04 00 00
	00		 mov	 al, BYTE PTR ??_C@_05OPJKAIHI@?$AA?$AA?$AB?$AA?$AB@+4
  000b4	88 44 0c 30	 mov	 BYTE PTR pkt$[rsp+rcx+16], al

; 1275 :   n += 5;
; 1276 :   if (ipv6) pkt.data[n - 3] = 0x1c;  // AAAA query

  000b8	40 84 ed	 test	 bpl, bpl
  000bb	74 05		 je	 SHORT $LN8@mg_dns_sen
  000bd	c6 44 0c 2e 1c	 mov	 BYTE PTR pkt$[rsp+rcx+14], 28
$LN8@mg_dns_sen:

; 1277 :   // memcpy(&pkt.data[n], "\xc0\x0c\x00\x1c\x00\x01", 6);  // AAAA query
; 1278 :   // n += 6;
; 1279 :   return mg_send(c, &pkt, sizeof(pkt.header) + n);

  000c2	4c 8d 41 11	 lea	 r8, QWORD PTR [rcx+17]
  000c6	49 8b cf	 mov	 rcx, r15
  000c9	48 8d 54 24 20	 lea	 rdx, QWORD PTR pkt$[rsp]
  000ce	e8 00 00 00 00	 call	 mg_send

; 1280 : }

  000d3	4c 8d 9c 24 30
	01 00 00	 lea	 r11, QWORD PTR [rsp+304]
  000db	49 8b 5b 20	 mov	 rbx, QWORD PTR [r11+32]
  000df	49 8b 6b 28	 mov	 rbp, QWORD PTR [r11+40]
  000e3	49 8b 73 30	 mov	 rsi, QWORD PTR [r11+48]
  000e7	49 8b e3	 mov	 rsp, r11
  000ea	41 5f		 pop	 r15
  000ec	41 5e		 pop	 r14
  000ee	5f		 pop	 rdi
  000ef	c3		 ret	 0
mg_dns_send ENDP
_TEXT	ENDS
; Function compile flags: /Ogspy
; File C:\Users\dev\source\repos\alpinevms\src\mongoose.c
;	COMDAT mg_sendnsreq
_TEXT	SEGMENT
c$ = 80
name$ = 88
ms$ = 96
dnsc$ = 104
ipv6$ = 112
mg_sendnsreq PROC					; COMDAT

; 1283 :                          struct mg_dns *dnsc, bool ipv6) {

  00000	48 8b c4	 mov	 rax, rsp
  00003	48 89 58 08	 mov	 QWORD PTR [rax+8], rbx
  00007	48 89 68 10	 mov	 QWORD PTR [rax+16], rbp
  0000b	48 89 70 18	 mov	 QWORD PTR [rax+24], rsi
  0000f	48 89 78 20	 mov	 QWORD PTR [rax+32], rdi
  00013	41 54		 push	 r12
  00015	41 56		 push	 r14
  00017	41 57		 push	 r15
  00019	48 83 ec 30	 sub	 rsp, 48			; 00000030H
  0001d	4c 8b fa	 mov	 r15, rdx
  00020	49 63 e8	 movsxd	 rbp, r8d

; 1284 :   struct dns_data *d = NULL;
; 1285 :   if (dnsc->url == NULL) {

  00023	49 8b 11	 mov	 rdx, QWORD PTR [r9]
  00026	4d 8b f1	 mov	 r14, r9
  00029	48 8b d9	 mov	 rbx, rcx
  0002c	48 85 d2	 test	 rdx, rdx
  0002f	75 12		 jne	 SHORT $LN5@mg_sendnsr

; 1286 :     mg_error(c, "DNS server URL is NULL. Call mg_mgr_init()");

  00031	48 8d 15 00 00
	00 00		 lea	 rdx, OFFSET FLAT:??_C@_0CL@JCHAOBLG@DNS?5server?5URL?5is?5NULL?4?5Call?5mg@
  00038	e8 00 00 00 00	 call	 mg_error
  0003d	49 8d 7e 08	 lea	 rdi, QWORD PTR [r14+8]
  00041	eb 32		 jmp	 SHORT $LN8@mg_sendnsr
$LN5@mg_sendnsr:

; 1287 :   } else if (dnsc->c == NULL) {

  00043	49 8d 71 08	 lea	 rsi, QWORD PTR [r9+8]
  00047	48 83 3e 00	 cmp	 QWORD PTR [rsi], 0
  0004b	48 8b fe	 mov	 rdi, rsi
  0004e	75 25		 jne	 SHORT $LN8@mg_sendnsr

; 1288 :     dnsc->c = mg_connect(c->mgr, dnsc->url, NULL, NULL);

  00050	48 8b 49 08	 mov	 rcx, QWORD PTR [rcx+8]
  00054	45 33 c9	 xor	 r9d, r9d
  00057	45 33 c0	 xor	 r8d, r8d
  0005a	e8 00 00 00 00	 call	 mg_connect
  0005f	48 89 06	 mov	 QWORD PTR [rsi], rax

; 1289 :     if (dnsc->c != NULL) {

  00062	48 85 c0	 test	 rax, rax
  00065	74 0e		 je	 SHORT $LN8@mg_sendnsr

; 1290 :       dnsc->c->pfn = dns_cb;

  00067	48 8d 0d 00 00
	00 00		 lea	 rcx, OFFSET FLAT:dns_cb
  0006e	48 89 88 d8 00
	00 00		 mov	 QWORD PTR [rax+216], rcx
$LN8@mg_sendnsr:

; 1291 :       // dnsc->c->is_hexdumping = 1;
; 1292 :     }
; 1293 :   }
; 1294 :   if (dnsc->c == NULL) {

  00075	48 83 3f 00	 cmp	 QWORD PTR [rdi], 0
  00079	75 0f		 jne	 SHORT $LN9@mg_sendnsr

; 1295 :     mg_error(c, "resolver");

  0007b	48 8d 15 00 00
	00 00		 lea	 rdx, OFFSET FLAT:??_C@_08DKAJKOFH@resolver@
$LN21@mg_sendnsr:

; 1310 :     }
; 1311 :   }
; 1312 : }

  00082	48 8b cb	 mov	 rcx, rbx
  00085	e9 d6 00 00 00	 jmp	 $LN20@mg_sendnsr
$LN9@mg_sendnsr:

; 1296 :   } else if ((d = (struct dns_data *) calloc(1, sizeof(*d))) == NULL) {

  0008a	ba 20 00 00 00	 mov	 edx, 32			; 00000020H
  0008f	44 8d 62 e1	 lea	 r12d, QWORD PTR [rdx-31]
  00093	41 8b cc	 mov	 ecx, r12d
  00096	ff 15 00 00 00
	00		 call	 QWORD PTR __imp_calloc
  0009c	48 8b f0	 mov	 rsi, rax
  0009f	48 85 c0	 test	 rax, rax
  000a2	75 09		 jne	 SHORT $LN11@mg_sendnsr

; 1297 :     mg_error(c, "resolve OOM");

  000a4	48 8d 15 00 00
	00 00		 lea	 rdx, OFFSET FLAT:??_C@_0M@JPBODOLJ@resolve?5OOM@

; 1298 :   } else {

  000ab	eb d5		 jmp	 SHORT $LN21@mg_sendnsr
$LN11@mg_sendnsr:

; 1299 :     struct dns_data *reqs = (struct dns_data *) c->mgr->active_dns_requests;

  000ad	48 8b 43 08	 mov	 rax, QWORD PTR [rbx+8]
  000b1	48 8b 48 50	 mov	 rcx, QWORD PTR [rax+80]

; 1300 :     d->txnid = reqs ? (uint16_t) (reqs->txnid + 1) : 1;

  000b5	48 85 c9	 test	 rcx, rcx
  000b8	74 0a		 je	 SHORT $LN16@mg_sendnsr
  000ba	0f b7 41 18	 movzx	 eax, WORD PTR [rcx+24]
  000be	66 41 03 c4	 add	 ax, r12w
  000c2	eb 03		 jmp	 SHORT $LN17@mg_sendnsr
$LN16@mg_sendnsr:
  000c4	41 8b c4	 mov	 eax, r12d
$LN17@mg_sendnsr:
  000c7	66 89 46 18	 mov	 WORD PTR [rsi+24], ax

; 1301 :     d->next = (struct dns_data *) c->mgr->active_dns_requests;

  000cb	48 8b 43 08	 mov	 rax, QWORD PTR [rbx+8]
  000cf	48 8b 48 50	 mov	 rcx, QWORD PTR [rax+80]
  000d3	48 89 0e	 mov	 QWORD PTR [rsi], rcx

; 1302 :     c->mgr->active_dns_requests = d;

  000d6	48 8b 43 08	 mov	 rax, QWORD PTR [rbx+8]
  000da	48 89 70 50	 mov	 QWORD PTR [rax+80], rsi

; 13865:   return GetTickCount();

  000de	ff 15 00 00 00
	00		 call	 QWORD PTR __imp_GetTickCount
  000e4	8b c8		 mov	 ecx, eax

; 1303 :     d->expire = mg_millis() + (uint64_t) ms;

  000e6	48 03 cd	 add	 rcx, rbp

; 1304 :     d->c = c;

  000e9	48 89 5e 08	 mov	 QWORD PTR [rsi+8], rbx
  000ed	48 89 4e 10	 mov	 QWORD PTR [rsi+16], rcx

; 1305 :     c->is_resolving = 1;
; 1306 :     MG_VERBOSE(("%lu resolving %.*s @ %s, txnid %hu", c->id, (int) name->len,

  000f1	b9 04 00 00 00	 mov	 ecx, 4
  000f6	83 8b 10 01 00
	00 08		 or	 DWORD PTR [rbx+272], 8
  000fd	39 0d 00 00 00
	00		 cmp	 DWORD PTR mg_log_level, ecx
  00103	7c 38		 jl	 SHORT $LN2@mg_sendnsr
  00105	4c 8d 0d 00 00
	00 00		 lea	 r9, OFFSET FLAT:??_C@_0N@IKEIFCGJ@mg_sendnsreq@
  0010c	41 b8 1b 05 00
	00		 mov	 r8d, 1307		; 0000051bH
  00112	e8 00 00 00 00	 call	 mg_log_prefix
  00117	0f b7 46 18	 movzx	 eax, WORD PTR [rsi+24]
  0011b	48 8d 0d 00 00
	00 00		 lea	 rcx, OFFSET FLAT:??_C@_0CD@BHFHEJIF@?$CFlu?5resolving?5?$CF?4?$CKs?5?$EA?5?$CFs?0?5txnid?5@
  00122	4d 8b 0f	 mov	 r9, QWORD PTR [r15]
  00125	45 8b 47 08	 mov	 r8d, DWORD PTR [r15+8]
  00129	8b 53 40	 mov	 edx, DWORD PTR [rbx+64]
  0012c	89 44 24 28	 mov	 DWORD PTR [rsp+40], eax
  00130	49 8b 06	 mov	 rax, QWORD PTR [r14]
  00133	48 89 44 24 20	 mov	 QWORD PTR [rsp+32], rax
  00138	e8 00 00 00 00	 call	 mg_log
$LN2@mg_sendnsr:

; 1307 :                 name->ptr, dnsc->url, d->txnid));
; 1308 :     if (!mg_dns_send(dnsc->c, name, d->txnid, ipv6)) {

  0013d	44 8a 4c 24 70	 mov	 r9b, BYTE PTR ipv6$[rsp]
  00142	49 8b d7	 mov	 rdx, r15
  00145	44 0f b7 46 18	 movzx	 r8d, WORD PTR [rsi+24]
  0014a	48 8b 0f	 mov	 rcx, QWORD PTR [rdi]
  0014d	e8 00 00 00 00	 call	 mg_dns_send
  00152	84 c0		 test	 al, al
  00154	75 0f		 jne	 SHORT $LN14@mg_sendnsr

; 1309 :       mg_error(dnsc->c, "DNS send");

  00156	48 8b 0f	 mov	 rcx, QWORD PTR [rdi]
  00159	48 8d 15 00 00
	00 00		 lea	 rdx, OFFSET FLAT:??_C@_08ECFMEKDO@DNS?5send@
$LN20@mg_sendnsr:

; 1310 :     }
; 1311 :   }
; 1312 : }

  00160	e8 00 00 00 00	 call	 mg_error
$LN14@mg_sendnsr:
  00165	48 8b 5c 24 50	 mov	 rbx, QWORD PTR [rsp+80]
  0016a	48 8b 6c 24 58	 mov	 rbp, QWORD PTR [rsp+88]
  0016f	48 8b 74 24 60	 mov	 rsi, QWORD PTR [rsp+96]
  00174	48 8b 7c 24 68	 mov	 rdi, QWORD PTR [rsp+104]
  00179	48 83 c4 30	 add	 rsp, 48			; 00000030H
  0017d	41 5f		 pop	 r15
  0017f	41 5e		 pop	 r14
  00181	41 5c		 pop	 r12
  00183	c3		 ret	 0
mg_sendnsreq ENDP
_TEXT	ENDS
; Function compile flags: /Ogspy
; File C:\Users\dev\source\repos\alpinevms\src\mongoose.c
;	COMDAT mg_resolve
_TEXT	SEGMENT
$T1 = 48
$T2 = 64
host$ = 64
c$ = 112
url$ = 120
mg_resolve PROC						; COMDAT

; 1314 : void mg_resolve(struct mg_connection *c, const char *url) {

$LN10:
  00000	48 89 5c 24 08	 mov	 QWORD PTR [rsp+8], rbx
  00005	57		 push	 rdi
  00006	48 83 ec 60	 sub	 rsp, 96			; 00000060H
  0000a	48 8b f9	 mov	 rdi, rcx
  0000d	0f 29 74 24 50	 movaps	 XMMWORD PTR [rsp+80], xmm6

; 1315 :   struct mg_str host = mg_url_host(url);

  00012	48 8d 4c 24 40	 lea	 rcx, QWORD PTR $T2[rsp]
  00017	48 8b da	 mov	 rbx, rdx
  0001a	e8 00 00 00 00	 call	 mg_url_host

; 1316 :   c->rem.port = mg_htons(mg_url_port(url));

  0001f	48 8b cb	 mov	 rcx, rbx
  00022	0f 10 30	 movups	 xmm6, XMMWORD PTR [rax]
  00025	0f 29 74 24 40	 movaps	 XMMWORD PTR host$[rsp], xmm6
  0002a	e8 00 00 00 00	 call	 mg_url_port

; 13807:   return (uint16_t) ((uint16_t) data[1] | (((uint16_t) data[0]) << 8));

  0002f	0f b6 d0	 movzx	 edx, al

; 1317 :   if (mg_aton(host, &c->rem)) {

  00032	48 8d 4c 24 30	 lea	 rcx, QWORD PTR $T1[rsp]

; 13807:   return (uint16_t) ((uint16_t) data[1] | (((uint16_t) data[0]) << 8));

  00037	66 c1 e2 08	 shl	 dx, 8
  0003b	66 c1 e8 08	 shr	 ax, 8
  0003f	66 0b d0	 or	 dx, ax

; 1317 :   if (mg_aton(host, &c->rem)) {

  00042	66 0f 7f 74 24
	30		 movdqa	 XMMWORD PTR $T1[rsp], xmm6
  00048	66 89 57 34	 mov	 WORD PTR [rdi+52], dx
  0004c	48 8d 57 24	 lea	 rdx, QWORD PTR [rdi+36]
  00050	e8 00 00 00 00	 call	 mg_aton
  00055	84 c0		 test	 al, al
  00057	74 0a		 je	 SHORT $LN2@mg_resolve

; 1318 :     // host is an IP address, do not fire name resolution
; 1319 :     mg_connect_resolved(c);

  00059	48 8b cf	 mov	 rcx, rdi
  0005c	e8 00 00 00 00	 call	 mg_connect_resolved

; 1320 :   } else {

  00061	eb 2e		 jmp	 SHORT $LN3@mg_resolve
$LN2@mg_resolve:

; 1321 :     // host is not an IP, send DNS resolution request
; 1322 :     struct mg_dns *dns = c->mgr->use_dns6 ? &c->mgr->dns6 : &c->mgr->dns4;

  00063	48 8b 57 08	 mov	 rdx, QWORD PTR [rdi+8]
  00067	8a 4a 2c	 mov	 cl, BYTE PTR [rdx+44]

; 1323 :     mg_sendnsreq(c, &host, c->mgr->dnstimeout, dns, c->mgr->use_dns6);

  0006a	44 8b 42 28	 mov	 r8d, DWORD PTR [rdx+40]
  0006e	8a c1		 mov	 al, cl
  00070	f6 d8		 neg	 al
  00072	88 4c 24 20	 mov	 BYTE PTR [rsp+32], cl
  00076	48 8b cf	 mov	 rcx, rdi
  00079	4d 1b c9	 sbb	 r9, r9
  0007c	41 83 e1 10	 and	 r9d, 16
  00080	49 83 c1 08	 add	 r9, 8
  00084	4c 03 ca	 add	 r9, rdx
  00087	48 8d 54 24 40	 lea	 rdx, QWORD PTR host$[rsp]
  0008c	e8 00 00 00 00	 call	 mg_sendnsreq
$LN3@mg_resolve:

; 1324 :   }
; 1325 : }

  00091	48 8b 5c 24 70	 mov	 rbx, QWORD PTR [rsp+112]
  00096	0f 28 74 24 50	 movaps	 xmm6, XMMWORD PTR [rsp+80]
  0009b	48 83 c4 60	 add	 rsp, 96			; 00000060H
  0009f	5f		 pop	 rdi
  000a0	c3		 ret	 0
mg_resolve ENDP
_TEXT	ENDS
; Function compile flags: /Ogspy
; File C:\Users\dev\source\repos\alpinevms\src\mongoose.c
;	COMDAT mg_call
_TEXT	SEGMENT
c$ = 48
ev$ = 56
ev_data$ = 64
mg_call	PROC						; COMDAT

; 1336 : void mg_call(struct mg_connection *c, int ev, void *ev_data) {

$LN6:
  00000	48 89 5c 24 08	 mov	 QWORD PTR [rsp+8], rbx
  00005	48 89 74 24 10	 mov	 QWORD PTR [rsp+16], rsi
  0000a	57		 push	 rdi
  0000b	48 83 ec 20	 sub	 rsp, 32			; 00000020H

; 1337 : #if MG_ENABLE_PROFILE
; 1338 :   const char *names[] = {
; 1339 :       "EV_ERROR",    "EV_OPEN",      "EV_POLL",      "EV_RESOLVE",
; 1340 :       "EV_CONNECT",  "EV_ACCEPT",    "EV_TLS_HS",    "EV_READ",
; 1341 :       "EV_WRITE",    "EV_CLOSE",     "EV_HTTP_MSG",  "EV_HTTP_CHUNK",
; 1342 :       "EV_WS_OPEN",  "EV_WS_MSG",    "EV_WS_CTL",    "EV_MQTT_CMD",
; 1343 :       "EV_MQTT_MSG", "EV_MQTT_OPEN", "EV_SNTP_TIME", "EV_USER"};
; 1344 :   if (ev != MG_EV_POLL && ev < (int) (sizeof(names) / sizeof(names[0]))) {
; 1345 :     MG_PROF_ADD(c, names[ev]);
; 1346 :   }
; 1347 : #endif
; 1348 :   // Fire protocol handler first, user handler second. See #2559
; 1349 :   if (c->pfn != NULL) c->pfn(c, ev, ev_data);

  0000f	48 8b 81 d8 00
	00 00		 mov	 rax, QWORD PTR [rcx+216]
  00016	49 8b f8	 mov	 rdi, r8
  00019	8b f2		 mov	 esi, edx
  0001b	48 8b d9	 mov	 rbx, rcx
  0001e	48 85 c0	 test	 rax, rax
  00021	74 02		 je	 SHORT $LN2@mg_call
  00023	ff d0		 call	 rax
$LN2@mg_call:

; 1350 :   if (c->fn != NULL) c->fn(c, ev, ev_data);

  00025	48 8b 83 c8 00
	00 00		 mov	 rax, QWORD PTR [rbx+200]
  0002c	48 85 c0	 test	 rax, rax
  0002f	74 0a		 je	 SHORT $LN3@mg_call
  00031	4c 8b c7	 mov	 r8, rdi
  00034	8b d6		 mov	 edx, esi
  00036	48 8b cb	 mov	 rcx, rbx
  00039	ff d0		 call	 rax
$LN3@mg_call:

; 1351 : }

  0003b	48 8b 5c 24 30	 mov	 rbx, QWORD PTR [rsp+48]
  00040	48 8b 74 24 38	 mov	 rsi, QWORD PTR [rsp+56]
  00045	48 83 c4 20	 add	 rsp, 32			; 00000020H
  00049	5f		 pop	 rdi
  0004a	c3		 ret	 0
mg_call	ENDP
_TEXT	ENDS
; Function compile flags: /Ogspy
; File C:\Users\dev\source\repos\alpinevms\src\mongoose.c
;	COMDAT mg_error
_TEXT	SEGMENT
ap$ = 32
buf$ = 48
c$ = 128
fmt$ = 136
mg_error PROC						; COMDAT

; 1353 : void mg_error(struct mg_connection *c, const char *fmt, ...) {

$LN8:
  00000	4c 8b dc	 mov	 r11, rsp
  00003	49 89 53 10	 mov	 QWORD PTR [r11+16], rdx
  00007	4d 89 43 18	 mov	 QWORD PTR [r11+24], r8
  0000b	4d 89 4b 20	 mov	 QWORD PTR [r11+32], r9
  0000f	53		 push	 rbx
  00010	48 83 ec 70	 sub	 rsp, 112		; 00000070H
  00014	48 8b d9	 mov	 rbx, rcx

; 1354 :   char buf[64];
; 1355 :   va_list ap;
; 1356 :   va_start(ap, fmt);

  00017	49 8d 43 18	 lea	 rax, QWORD PTR [r11+24]

; 1357 :   mg_vsnprintf(buf, sizeof(buf), fmt, &ap);

  0001b	4c 8b c2	 mov	 r8, rdx
  0001e	49 89 43 a8	 mov	 QWORD PTR [r11-88], rax
  00022	ba 40 00 00 00	 mov	 edx, 64			; 00000040H
  00027	49 8d 4b b8	 lea	 rcx, QWORD PTR [r11-72]
  0002b	4d 8d 4b a8	 lea	 r9, QWORD PTR [r11-88]
  0002f	e8 00 00 00 00	 call	 mg_vsnprintf

; 1358 :   va_end(ap);

  00034	48 83 64 24 20
	00		 and	 QWORD PTR ap$[rsp], 0

; 1359 :   MG_ERROR(("%lu %ld %s", c->id, c->fd, buf));

  0003a	b9 01 00 00 00	 mov	 ecx, 1
  0003f	39 0d 00 00 00
	00		 cmp	 DWORD PTR mg_log_level, ecx
  00045	7c 2a		 jl	 SHORT $LN2@mg_error
  00047	4c 8d 0d 00 00
	00 00		 lea	 r9, OFFSET FLAT:??_C@_08PPPGGPGG@mg_error@
  0004e	41 b8 4f 05 00
	00		 mov	 r8d, 1359		; 0000054fH
  00054	e8 00 00 00 00	 call	 mg_log_prefix
  00059	4c 8b 43 38	 mov	 r8, QWORD PTR [rbx+56]
  0005d	4c 8d 4c 24 30	 lea	 r9, QWORD PTR buf$[rsp]
  00062	8b 53 40	 mov	 edx, DWORD PTR [rbx+64]
  00065	48 8d 0d 00 00
	00 00		 lea	 rcx, OFFSET FLAT:??_C@_0L@PPINGECD@?$CFlu?5?$CFld?5?$CFs@
  0006c	e8 00 00 00 00	 call	 mg_log
$LN2@mg_error:

; 1360 :   c->is_closing = 1;             // Set is_closing before sending MG_EV_CALL

  00071	0f ba ab 10 01
	00 00 0d	 bts	 DWORD PTR [rbx+272], 13

; 1361 :   mg_call(c, MG_EV_ERROR, buf);  // Let user handler override it

  00079	4c 8d 44 24 30	 lea	 r8, QWORD PTR buf$[rsp]
  0007e	33 d2		 xor	 edx, edx
  00080	48 8b cb	 mov	 rcx, rbx
  00083	e8 00 00 00 00	 call	 mg_call

; 1362 : }

  00088	48 83 c4 70	 add	 rsp, 112		; 00000070H
  0008c	5b		 pop	 rbx
  0008d	c3		 ret	 0
mg_error ENDP
_TEXT	ENDS
; Function compile flags: /Ogspy
; File C:\Users\dev\source\repos\alpinevms\src\mongoose.c
;	COMDAT is_digit
_TEXT	SEGMENT
c$ = 8
is_digit PROC						; COMDAT

; 1372 :   return c >= '0' && c <= '9';

  00000	8d 41 d0	 lea	 eax, DWORD PTR [rcx-48]
  00003	83 f8 09	 cmp	 eax, 9
  00006	0f 96 c0	 setbe	 al

; 1373 : }

  00009	c3		 ret	 0
is_digit ENDP
_TEXT	ENDS
; Function compile flags: /Ogspy
; File C:\Users\dev\source\repos\alpinevms\src\mongoose.c
;	COMDAT addexp
_TEXT	SEGMENT
buf$ = 8
e$ = 16
sign$ = 24
addexp	PROC						; COMDAT

; 1376 :   int n = 0;
; 1377 :   buf[n++] = 'e';

  00000	c6 01 65	 mov	 BYTE PTR [rcx], 101	; 00000065H
  00003	44 8b ca	 mov	 r9d, edx

; 1378 :   buf[n++] = (char) sign;

  00006	44 88 41 01	 mov	 BYTE PTR [rcx+1], r8b
  0000a	4c 8b d1	 mov	 r10, rcx

; 1379 :   if (e > 400) return 0;

  0000d	81 fa 90 01 00
	00		 cmp	 edx, 400		; 00000190H
  00013	7e 03		 jle	 SHORT $LN2@addexp
  00015	33 c0		 xor	 eax, eax

; 1384 :   return n;
; 1385 : }

  00017	c3		 ret	 0
$LN2@addexp:

; 1380 :   if (e < 10) buf[n++] = '0';

  00018	41 83 f9 0a	 cmp	 r9d, 10
  0001c	7d 0c		 jge	 SHORT $LN3@addexp
  0001e	c6 41 02 30	 mov	 BYTE PTR [rcx+2], 48	; 00000030H
  00022	41 b8 03 00 00
	00		 mov	 r8d, 3
  00028	eb 54		 jmp	 SHORT $LN5@addexp
$LN3@addexp:

; 1381 :   if (e >= 100) buf[n++] = (char) (e / 100 + '0'), e -= 100 * (e / 100);

  0002a	41 b8 02 00 00
	00		 mov	 r8d, 2
  00030	41 83 f9 64	 cmp	 r9d, 100		; 00000064H
  00034	7c 23		 jl	 SHORT $LN7@addexp
  00036	b8 1f 85 eb 51	 mov	 eax, 1374389535		; 51eb851fH
  0003b	41 b8 03 00 00
	00		 mov	 r8d, 3
  00041	41 f7 e1	 mul	 r9d
  00044	c1 ea 05	 shr	 edx, 5
  00047	8d 42 30	 lea	 eax, DWORD PTR [rdx+48]
  0004a	88 41 02	 mov	 BYTE PTR [rcx+2], al
  0004d	6b c2 9c	 imul	 eax, edx, -100		; ffffffffffffff9cH
  00050	44 03 c8	 add	 r9d, eax

; 1382 :   if (e >= 10) buf[n++] = (char) (e / 10 + '0'), e -= 10 * (e / 10);

  00053	41 83 f9 0a	 cmp	 r9d, 10
  00057	7c 25		 jl	 SHORT $LN5@addexp
$LN7@addexp:
  00059	b8 67 66 66 66	 mov	 eax, 1717986919		; 66666667H
  0005e	41 f7 e9	 imul	 r9d
  00061	c1 fa 02	 sar	 edx, 2
  00064	8b c2		 mov	 eax, edx
  00066	c1 e8 1f	 shr	 eax, 31
  00069	03 d0		 add	 edx, eax
  0006b	41 8b c0	 mov	 eax, r8d
  0006e	41 ff c0	 inc	 r8d
  00071	8d 4a 30	 lea	 ecx, DWORD PTR [rdx+48]
  00074	42 88 0c 10	 mov	 BYTE PTR [rax+r10], cl
  00078	6b c2 f6	 imul	 eax, edx, -10
  0007b	44 03 c8	 add	 r9d, eax
$LN5@addexp:

; 1383 :   buf[n++] = (char) (e + '0');

  0007e	41 8b c0	 mov	 eax, r8d
  00081	41 80 c1 30	 add	 r9b, 48			; 00000030H
  00085	46 88 0c 10	 mov	 BYTE PTR [rax+r10], r9b
  00089	41 8d 40 01	 lea	 eax, DWORD PTR [r8+1]

; 1384 :   return n;
; 1385 : }

  0008d	c3		 ret	 0
addexp	ENDP
_TEXT	ENDS
; Function compile flags: /Ogspy
; File C:\Users\dev\source\repos\alpinevms\src\mongoose.c
;	COMDAT xisinf
_TEXT	SEGMENT
ieee754$ = 8
x$ = 8
xisinf	PROC						; COMDAT

; 1388 :   union {
; 1389 :     double f;
; 1390 :     uint64_t u;
; 1391 :   } ieee754 = {x};

  00000	f2 0f 11 44 24
	08		 movsd	 QWORD PTR ieee754$[rsp], xmm0

; 1392 :   return ((unsigned) (ieee754.u >> 32) & 0x7fffffff) == 0x7ff00000 &&

  00006	33 c9		 xor	 ecx, ecx
  00008	48 8b 44 24 08	 mov	 rax, QWORD PTR ieee754$[rsp]
  0000d	48 c1 e8 20	 shr	 rax, 32			; 00000020H
  00011	0f ba f0 1f	 btr	 eax, 31
  00015	3d 00 00 f0 7f	 cmp	 eax, 2146435072		; 7ff00000H
  0001a	75 0b		 jne	 SHORT $LN4@xisinf
  0001c	39 4c 24 08	 cmp	 DWORD PTR ieee754$[rsp], ecx
  00020	75 05		 jne	 SHORT $LN4@xisinf
  00022	b9 01 00 00 00	 mov	 ecx, 1
$LN4@xisinf:
  00027	8b c1		 mov	 eax, ecx

; 1393 :          ((unsigned) ieee754.u == 0);
; 1394 : }

  00029	c3		 ret	 0
xisinf	ENDP
_TEXT	ENDS
; Function compile flags: /Ogspy
; File C:\Users\dev\source\repos\alpinevms\src\mongoose.c
;	COMDAT xisnan
_TEXT	SEGMENT
ieee754$ = 8
x$ = 8
xisnan	PROC						; COMDAT

; 1397 :   union {
; 1398 :     double f;
; 1399 :     uint64_t u;
; 1400 :   } ieee754 = {x};
; 1401 :   return ((unsigned) (ieee754.u >> 32) & 0x7fffffff) +

  00000	33 c0		 xor	 eax, eax
  00002	f2 0f 11 44 24
	08		 movsd	 QWORD PTR ieee754$[rsp], xmm0
  00008	48 8b 54 24 08	 mov	 rdx, QWORD PTR ieee754$[rsp]
  0000d	8b c8		 mov	 ecx, eax
  0000f	48 c1 ea 20	 shr	 rdx, 32			; 00000020H
  00013	0f ba f2 1f	 btr	 edx, 31
  00017	39 44 24 08	 cmp	 DWORD PTR ieee754$[rsp], eax
  0001b	0f 95 c1	 setne	 cl
  0001e	03 d1		 add	 edx, ecx
  00020	81 fa 00 00 f0
	7f		 cmp	 edx, 2146435072		; 7ff00000H
  00026	0f 97 c0	 seta	 al

; 1402 :              ((unsigned) ieee754.u != 0) >
; 1403 :          0x7ff00000;
; 1404 : }

  00029	c3		 ret	 0
xisnan	ENDP
_TEXT	ENDS
; Function compile flags: /Ogspy
; File C:\Users\dev\source\repos\alpinevms\src\mongoose.c
;	COMDAT mg_dtoa
_TEXT	SEGMENT
buf$ = 48
dst$ = 112
dstlen$dead$ = 120
ieee754$1 = 120
d$ = 128
width$ = 136
tz$ = 144
mg_dtoa	PROC						; COMDAT

; 1406 : static size_t mg_dtoa(char *dst, size_t dstlen, double d, int width, bool tz) {

  00000	48 8b c4	 mov	 rax, rsp
  00003	48 89 70 08	 mov	 QWORD PTR [rax+8], rsi
  00007	48 89 78 18	 mov	 QWORD PTR [rax+24], rdi
  0000b	4c 89 70 20	 mov	 QWORD PTR [rax+32], r14
  0000f	48 89 50 10	 mov	 QWORD PTR [rax+16], rdx
  00013	55		 push	 rbp
  00014	48 8b ec	 mov	 rbp, rsp
  00017	48 83 ec 60	 sub	 rsp, 96			; 00000060H

; 1407 :   char buf[40];
; 1408 :   int i, s = 0, n = 0, e = 0;

  0001b	45 33 c0	 xor	 r8d, r8d
  0001e	33 f6		 xor	 esi, esi
  00020	0f 57 c9	 xorps	 xmm1, xmm1
  00023	4c 8b f1	 mov	 r14, rcx

; 1409 :   double t, mul, saved;
; 1410 :   if (d == 0.0) return mg_snprintf(dst, dstlen, "%s", "0");

  00026	66 0f 2e d1	 ucomisd xmm2, xmm1
  0002a	0f 28 da	 movaps	 xmm3, xmm2
  0002d	7a 0e		 jp	 SHORT $LN23@mg_dtoa
  0002f	75 0c		 jne	 SHORT $LN23@mg_dtoa
  00031	4c 8d 0d 00 00
	00 00		 lea	 r9, OFFSET FLAT:??_C@_01GBGANLPD@0@
  00038	e9 1c 03 00 00	 jmp	 $LN87@mg_dtoa
$LN23@mg_dtoa:

; 1411 :   if (xisinf(d)) return mg_snprintf(dst, dstlen, "%s", d > 0 ? "inf" : "-inf");

  0003d	0f 28 c2	 movaps	 xmm0, xmm2
  00040	e8 00 00 00 00	 call	 xisinf
  00045	85 c0		 test	 eax, eax
  00047	74 1b		 je	 SHORT $LN24@mg_dtoa
  00049	66 0f 2f d1	 comisd	 xmm2, xmm1
  0004d	48 8d 05 00 00
	00 00		 lea	 rax, OFFSET FLAT:??_C@_03OJHLLCGB@inf@
  00054	4c 8d 0d 00 00
	00 00		 lea	 r9, OFFSET FLAT:??_C@_04DHEMHBNF@?9inf@
  0005b	4c 0f 47 c8	 cmova	 r9, rax
  0005f	e9 f2 02 00 00	 jmp	 $LN88@mg_dtoa
$LN24@mg_dtoa:

; 1401 :   return ((unsigned) (ieee754.u >> 32) & 0x7fffffff) +

  00064	33 c9		 xor	 ecx, ecx
  00066	f2 0f 11 55 18	 movsd	 QWORD PTR ieee754$1[rbp-96], xmm2
  0006b	48 8b 45 18	 mov	 rax, QWORD PTR ieee754$1[rbp-96]
  0006f	48 8b d0	 mov	 rdx, rax
  00072	48 c1 ea 20	 shr	 rdx, 32			; 00000020H
  00076	0f ba f2 1f	 btr	 edx, 31
  0007a	85 c0		 test	 eax, eax
  0007c	0f 95 c1	 setne	 cl
  0007f	03 d1		 add	 edx, ecx
  00081	81 fa 00 00 f0
	7f		 cmp	 edx, 2146435072		; 7ff00000H

; 1412 :   if (xisnan(d)) return mg_snprintf(dst, dstlen, "%s", "nan");

  00087	76 0c		 jbe	 SHORT $LN25@mg_dtoa
  00089	4c 8d 0d 00 00
	00 00		 lea	 r9, OFFSET FLAT:??_C@_03LHCJEHON@nan@
  00090	e9 c1 02 00 00	 jmp	 $LN88@mg_dtoa
$LN25@mg_dtoa:

; 1413 :   if (d < 0.0) d = -d, buf[s++] = '-';

  00095	66 0f 2f ca	 comisd	 xmm1, xmm2
  00099	76 0b		 jbe	 SHORT $LN26@mg_dtoa
  0009b	0f 57 15 00 00
	00 00		 xorps	 xmm2, QWORD PTR __xmm@80000000000000008000000000000000
  000a2	c6 45 d0 2d	 mov	 BYTE PTR buf$[rbp-96], 45 ; 0000002dH
$LN26@mg_dtoa:

; 1414 : 
; 1415 :   // Round
; 1416 :   saved = d;
; 1417 :   mul = 1.0;

  000a6	f2 0f 10 25 00
	00 00 00	 movsd	 xmm4, QWORD PTR __real@3ff0000000000000
  000ae	33 ff		 xor	 edi, edi
  000b0	66 0f 2f cb	 comisd	 xmm1, xmm3

; 1418 :   while (d >= 10.0 && d / mul >= 10.0) mul *= 10.0;

  000b4	f2 0f 10 1d 00
	00 00 00	 movsd	 xmm3, QWORD PTR __real@4024000000000000
  000bc	0f 28 ea	 movaps	 xmm5, xmm2
  000bf	0f 28 cc	 movaps	 xmm1, xmm4
  000c2	40 0f 97 c7	 seta	 dil
  000c6	66 0f 2f d3	 comisd	 xmm2, xmm3
  000ca	72 13		 jb	 SHORT $LN41@mg_dtoa
$LL2@mg_dtoa:
  000cc	0f 28 c2	 movaps	 xmm0, xmm2
  000cf	f2 0f 5e c1	 divsd	 xmm0, xmm1
  000d3	66 0f 2f c3	 comisd	 xmm0, xmm3
  000d7	72 06		 jb	 SHORT $LN41@mg_dtoa
  000d9	f2 0f 59 cb	 mulsd	 xmm1, xmm3
  000dd	eb ed		 jmp	 SHORT $LL2@mg_dtoa
$LN41@mg_dtoa:

; 1419 :   while (d <= 1.0 && d / mul <= 1.0) mul /= 10.0;

  000df	66 0f 2f e2	 comisd	 xmm4, xmm2
  000e3	72 13		 jb	 SHORT $LN5@mg_dtoa
$LL4@mg_dtoa:
  000e5	0f 28 c2	 movaps	 xmm0, xmm2
  000e8	f2 0f 5e c1	 divsd	 xmm0, xmm1
  000ec	66 0f 2f e0	 comisd	 xmm4, xmm0
  000f0	72 06		 jb	 SHORT $LN5@mg_dtoa
  000f2	f2 0f 5e cb	 divsd	 xmm1, xmm3
  000f6	eb ed		 jmp	 SHORT $LL4@mg_dtoa
$LN5@mg_dtoa:

; 1420 :   for (i = 0, t = mul * 5; i < width; i++) t /= 10.0;

  000f8	f2 0f 59 0d 00
	00 00 00	 mulsd	 xmm1, QWORD PTR __real@4014000000000000
  00100	45 85 c9	 test	 r9d, r9d
  00103	7e 0d		 jle	 SHORT $LN7@mg_dtoa
  00105	41 8b c1	 mov	 eax, r9d
$LL58@mg_dtoa:
  00108	f2 0f 5e cb	 divsd	 xmm1, xmm3
  0010c	48 83 e8 01	 sub	 rax, 1
  00110	75 f6		 jne	 SHORT $LL58@mg_dtoa
$LN7@mg_dtoa:

; 1421 :   d += t;

  00112	f2 0f 58 d1	 addsd	 xmm2, xmm1

; 1422 :   // Calculate exponent, and 'mul' for scientific representation
; 1423 :   mul = 1.0;

  00116	0f 28 cc	 movaps	 xmm1, xmm4

; 1424 :   while (d >= 10.0 && d / mul >= 10.0) mul *= 10.0, e++;

  00119	66 0f 2f d3	 comisd	 xmm2, xmm3
  0011d	72 15		 jb	 SHORT $LN44@mg_dtoa
$LL9@mg_dtoa:
  0011f	0f 28 c2	 movaps	 xmm0, xmm2
  00122	f2 0f 5e c1	 divsd	 xmm0, xmm1
  00126	66 0f 2f c3	 comisd	 xmm0, xmm3
  0012a	72 08		 jb	 SHORT $LN44@mg_dtoa
  0012c	f2 0f 59 cb	 mulsd	 xmm1, xmm3
  00130	ff c6		 inc	 esi
  00132	eb eb		 jmp	 SHORT $LL9@mg_dtoa
$LN44@mg_dtoa:

; 1425 :   while (d < 1.0 && d / mul < 1.0) mul /= 10.0, e--;

  00134	66 0f 2f e2	 comisd	 xmm4, xmm2
  00138	76 15		 jbe	 SHORT $LN12@mg_dtoa
$LL11@mg_dtoa:
  0013a	0f 28 c2	 movaps	 xmm0, xmm2
  0013d	f2 0f 5e c1	 divsd	 xmm0, xmm1
  00141	66 0f 2f e0	 comisd	 xmm4, xmm0
  00145	76 08		 jbe	 SHORT $LN12@mg_dtoa
  00147	f2 0f 5e cb	 divsd	 xmm1, xmm3
  0014b	ff ce		 dec	 esi
  0014d	eb eb		 jmp	 SHORT $LL11@mg_dtoa
$LN12@mg_dtoa:

; 1426 :   // printf(" --> %g %d %g %g\n", saved, e, t, mul);
; 1427 : 
; 1428 :   if (e >= width && width > 1) {

  0014f	41 3b f1	 cmp	 esi, r9d
  00152	7c 68		 jl	 SHORT $LN27@mg_dtoa
  00154	41 83 f9 01	 cmp	 r9d, 1
  00158	7e 62		 jle	 SHORT $LN27@mg_dtoa

; 1429 :     n = (int) mg_dtoa(buf, sizeof(buf), saved / mul, width, tz);

  0015a	8a 45 30	 mov	 al, BYTE PTR tz$[rbp-96]
  0015d	48 8d 4d d0	 lea	 rcx, QWORD PTR buf$[rbp-96]
  00161	f2 0f 5e e9	 divsd	 xmm5, xmm1
  00165	ba 28 00 00 00	 mov	 edx, 40			; 00000028H
  0016a	88 44 24 20	 mov	 BYTE PTR [rsp+32], al
  0016e	0f 28 d5	 movaps	 xmm2, xmm5
  00171	e8 00 00 00 00	 call	 mg_dtoa

; 1430 :     // printf(" --> %.*g %d [%.*s]\n", 10, d / t, e, n, buf);
; 1431 :     n += addexp(buf + s + n, e, '+');

  00176	48 63 c8	 movsxd	 rcx, eax
  00179	4c 8b d8	 mov	 r11, rax
  0017c	44 8b c7	 mov	 r8d, edi
  0017f	4c 03 c1	 add	 r8, rcx
  00182	48 8d 4d d0	 lea	 rcx, QWORD PTR buf$[rbp-96]
  00186	49 03 c8	 add	 rcx, r8
  00189	41 b8 2b 00 00
	00		 mov	 r8d, 43			; 0000002bH
$LN89@mg_dtoa:

; 1463 : }

  0018f	8b d6		 mov	 edx, esi
  00191	e8 00 00 00 00	 call	 addexp
  00196	4c 8d 05 00 00
	00 00		 lea	 r8, OFFSET FLAT:??_C@_04EBNJJJJI@?$CF?4?$CKs@
  0019d	ba 28 00 00 00	 mov	 edx, 40			; 00000028H
  001a2	49 8b ce	 mov	 rcx, r14
  001a5	46 8d 0c 18	 lea	 r9d, DWORD PTR [rax+r11]
  001a9	48 8d 45 d0	 lea	 rax, QWORD PTR buf$[rbp-96]
  001ad	48 89 44 24 20	 mov	 QWORD PTR [rsp+32], rax
  001b2	e8 00 00 00 00	 call	 mg_snprintf
  001b7	e9 ae 01 00 00	 jmp	 $LN1@mg_dtoa
$LN27@mg_dtoa:

; 1432 :     return mg_snprintf(dst, dstlen, "%.*s", n, buf);
; 1433 :   } else if (e <= -width && width > 1) {

  001bc	41 8b c1	 mov	 eax, r9d
  001bf	f7 d8		 neg	 eax
  001c1	3b f0		 cmp	 esi, eax
  001c3	7f 3e		 jg	 SHORT $LN29@mg_dtoa
  001c5	41 83 f9 01	 cmp	 r9d, 1
  001c9	7e 38		 jle	 SHORT $LN29@mg_dtoa

; 1434 :     n = (int) mg_dtoa(buf, sizeof(buf), saved / mul, width, tz);

  001cb	8a 45 30	 mov	 al, BYTE PTR tz$[rbp-96]
  001ce	48 8d 4d d0	 lea	 rcx, QWORD PTR buf$[rbp-96]
  001d2	f2 0f 5e e9	 divsd	 xmm5, xmm1
  001d6	ba 28 00 00 00	 mov	 edx, 40			; 00000028H
  001db	88 44 24 20	 mov	 BYTE PTR [rsp+32], al
  001df	0f 28 d5	 movaps	 xmm2, xmm5
  001e2	e8 00 00 00 00	 call	 mg_dtoa

; 1435 :     // printf(" --> %.*g %d [%.*s]\n", 10, d / mul, e, n, buf);
; 1436 :     n += addexp(buf + s + n, -e, '-');

  001e7	48 63 d0	 movsxd	 rdx, eax
  001ea	4c 8b d8	 mov	 r11, rax
  001ed	8b cf		 mov	 ecx, edi
  001ef	48 8d 45 d0	 lea	 rax, QWORD PTR buf$[rbp-96]
  001f3	48 03 ca	 add	 rcx, rdx
  001f6	f7 de		 neg	 esi
  001f8	48 03 c8	 add	 rcx, rax
  001fb	41 b8 2d 00 00
	00		 mov	 r8d, 45			; 0000002dH

; 1437 :     return mg_snprintf(dst, dstlen, "%.*s", n, buf);

  00201	eb 8c		 jmp	 SHORT $LN89@mg_dtoa
$LN29@mg_dtoa:

; 1438 :   } else {
; 1439 :     for (i = 0, t = mul; t >= 1.0 && s + n < (int) sizeof(buf); i++) {

  00203	66 0f 2f cc	 comisd	 xmm1, xmm4
  00207	44 8b df	 mov	 r11d, edi
  0020a	72 54		 jb	 SHORT $LN78@mg_dtoa
  0020c	33 c9		 xor	 ecx, ecx
  0020e	48 8d 75 d0	 lea	 rsi, QWORD PTR buf$[rbp-96]
  00212	49 03 f3	 add	 rsi, r11
  00215	44 8b d7	 mov	 r10d, edi
$LL15@mg_dtoa:
  00218	41 83 fa 28	 cmp	 r10d, 40		; 00000028H
  0021c	7d 3d		 jge	 SHORT $LN14@mg_dtoa

; 1440 :       int ch = (int) (d / t);

  0021e	0f 28 c2	 movaps	 xmm0, xmm2
  00221	f2 0f 5e c1	 divsd	 xmm0, xmm1
  00225	f2 0f 2c d0	 cvttsd2si edx, xmm0

; 1441 :       if (n > 0 || ch > 0) buf[s + n++] = (char) (ch + '0');

  00229	48 85 c9	 test	 rcx, rcx
  0022c	7f 04		 jg	 SHORT $LN32@mg_dtoa
  0022e	85 d2		 test	 edx, edx
  00230	7e 0f		 jle	 SHORT $LN31@mg_dtoa
$LN32@mg_dtoa:
  00232	8d 42 30	 lea	 eax, DWORD PTR [rdx+48]
  00235	41 ff c0	 inc	 r8d
  00238	41 ff c2	 inc	 r10d
  0023b	88 04 0e	 mov	 BYTE PTR [rsi+rcx], al
  0023e	48 ff c1	 inc	 rcx
$LN31@mg_dtoa:

; 1442 :       d -= ch * t;

  00241	66 0f 6e c2	 movd	 xmm0, edx
  00245	f3 0f e6 c0	 cvtdq2pd xmm0, xmm0
  00249	f2 0f 59 c1	 mulsd	 xmm0, xmm1

; 1443 :       t /= 10.0;

  0024d	f2 0f 5e cb	 divsd	 xmm1, xmm3
  00251	f2 0f 5c d0	 subsd	 xmm2, xmm0
  00255	66 0f 2f cc	 comisd	 xmm1, xmm4
  00259	73 bd		 jae	 SHORT $LL15@mg_dtoa
$LN14@mg_dtoa:

; 1444 :     }
; 1445 :     // printf(" --> [%g] -> %g %g (%d) [%.*s]\n", saved, d, t, n, s + n, buf);
; 1446 :     if (n == 0) buf[s++] = '0';

  0025b	45 85 c0	 test	 r8d, r8d
  0025e	75 08		 jne	 SHORT $LN46@mg_dtoa
$LN78@mg_dtoa:
  00260	42 c6 44 1d d0
	30		 mov	 BYTE PTR buf$[rbp+r11-96], 48 ; 00000030H
  00266	ff c7		 inc	 edi
$LN46@mg_dtoa:

; 1447 :     while (t >= 1.0 && n + s < (int) sizeof(buf)) buf[n++] = '0', t /= 10.0;

  00268	66 0f 2f cc	 comisd	 xmm1, xmm4
  0026c	72 28		 jb	 SHORT $LN17@mg_dtoa
  0026e	49 63 c0	 movsxd	 rax, r8d
  00271	48 8d 4d d0	 lea	 rcx, QWORD PTR buf$[rbp-96]
  00275	48 03 c8	 add	 rcx, rax
  00278	41 8d 04 38	 lea	 eax, DWORD PTR [r8+rdi]
$LL16@mg_dtoa:
  0027c	83 f8 28	 cmp	 eax, 40			; 00000028H
  0027f	7d 15		 jge	 SHORT $LN17@mg_dtoa
  00281	f2 0f 5e cb	 divsd	 xmm1, xmm3
  00285	c6 01 30	 mov	 BYTE PTR [rcx], 48	; 00000030H
  00288	41 ff c0	 inc	 r8d
  0028b	ff c0		 inc	 eax
  0028d	48 ff c1	 inc	 rcx
  00290	66 0f 2f cc	 comisd	 xmm1, xmm4
  00294	73 e6		 jae	 SHORT $LL16@mg_dtoa
$LN17@mg_dtoa:

; 1448 :     if (s + n < (int) sizeof(buf)) buf[n + s++] = '.';

  00296	41 8d 04 38	 lea	 eax, DWORD PTR [r8+rdi]
  0029a	83 f8 28	 cmp	 eax, 40			; 00000028H
  0029d	7d 09		 jge	 SHORT $LN34@mg_dtoa
  0029f	48 98		 cdqe
  002a1	ff c7		 inc	 edi
  002a3	c6 44 05 d0 2e	 mov	 BYTE PTR buf$[rbp+rax-96], 46 ; 0000002eH
$LN34@mg_dtoa:

; 1449 :     // printf(" 1--> [%g] -> [%.*s]\n", saved, s + n, buf);
; 1450 :     for (i = 0, t = 0.1; s + n < (int) sizeof(buf) && n < width; i++) {

  002a8	f2 0f 10 0d 00
	00 00 00	 movsd	 xmm1, QWORD PTR __real@3fb999999999999a
  002b0	45 8d 14 38	 lea	 r10d, DWORD PTR [r8+rdi]
  002b4	44 8b df	 mov	 r11d, edi
  002b7	41 83 fa 28	 cmp	 r10d, 40		; 00000028H
  002bb	7d 46		 jge	 SHORT $LN48@mg_dtoa
  002bd	48 8d 75 d0	 lea	 rsi, QWORD PTR buf$[rbp-96]
  002c1	49 63 d0	 movsxd	 rdx, r8d
  002c4	49 03 f3	 add	 rsi, r11
  002c7	4d 63 c9	 movsxd	 r9, r9d
$LL20@mg_dtoa:
  002ca	49 3b d1	 cmp	 rdx, r9
  002cd	7d 34		 jge	 SHORT $LN48@mg_dtoa

; 1451 :       int ch = (int) (d / t);

  002cf	0f 28 c2	 movaps	 xmm0, xmm2

; 1452 :       buf[s + n++] = (char) (ch + '0');

  002d2	41 ff c0	 inc	 r8d
  002d5	f2 0f 5e c1	 divsd	 xmm0, xmm1
  002d9	41 ff c2	 inc	 r10d
  002dc	f2 0f 2c c8	 cvttsd2si ecx, xmm0
  002e0	66 0f 6e c1	 movd	 xmm0, ecx
  002e4	8d 41 30	 lea	 eax, DWORD PTR [rcx+48]

; 1453 :       d -= ch * t;

  002e7	f3 0f e6 c0	 cvtdq2pd xmm0, xmm0
  002eb	88 04 16	 mov	 BYTE PTR [rsi+rdx], al
  002ee	48 ff c2	 inc	 rdx
  002f1	f2 0f 59 c1	 mulsd	 xmm0, xmm1

; 1454 :       t /= 10.0;

  002f5	f2 0f 5e cb	 divsd	 xmm1, xmm3
  002f9	f2 0f 5c d0	 subsd	 xmm2, xmm0
  002fd	41 83 fa 28	 cmp	 r10d, 40		; 00000028H
  00301	7c c7		 jl	 SHORT $LL20@mg_dtoa
$LN48@mg_dtoa:

; 1455 :     }
; 1456 :   }
; 1457 :   while (tz && n > 0 && buf[s + n - 1] == '0') n--;  // Trim trailing zeroes

  00303	80 7d 30 00	 cmp	 BYTE PTR tz$[rbp-96], 0
  00307	74 1b		 je	 SHORT $LN22@mg_dtoa
  00309	49 63 c0	 movsxd	 rax, r8d
  0030c	4a 8d 4c 1d cf	 lea	 rcx, QWORD PTR buf$[rbp+r11-97]
$LL21@mg_dtoa:
  00311	48 85 c0	 test	 rax, rax
  00314	7e 0e		 jle	 SHORT $LN22@mg_dtoa
  00316	80 3c 01 30	 cmp	 BYTE PTR [rcx+rax], 48	; 00000030H
  0031a	75 08		 jne	 SHORT $LN22@mg_dtoa
  0031c	41 ff c8	 dec	 r8d
  0031f	48 ff c8	 dec	 rax
  00322	eb ed		 jmp	 SHORT $LL21@mg_dtoa
$LN22@mg_dtoa:

; 1458 :   if (n > 0 && buf[s + n - 1] == '.') n--;           // Trim trailing dot

  00324	45 85 c0	 test	 r8d, r8d
  00327	7e 11		 jle	 SHORT $LN35@mg_dtoa
  00329	41 8d 04 38	 lea	 eax, DWORD PTR [r8+rdi]
  0032d	48 63 c8	 movsxd	 rcx, eax
  00330	80 7c 0d cf 2e	 cmp	 BYTE PTR buf$[rbp+rcx-97], 46 ; 0000002eH
  00335	75 03		 jne	 SHORT $LN35@mg_dtoa
  00337	41 ff c8	 dec	 r8d
$LN35@mg_dtoa:

; 1459 :   n += s;

  0033a	44 03 c7	 add	 r8d, edi

; 1460 :   if (n >= (int) sizeof(buf)) n = (int) sizeof(buf) - 1;
; 1461 :   buf[n] = '\0';
; 1462 :   return mg_snprintf(dst, dstlen, "%s", buf);

  0033d	4c 8d 4d d0	 lea	 r9, QWORD PTR buf$[rbp-96]
  00341	b8 27 00 00 00	 mov	 eax, 39			; 00000027H
  00346	41 83 f8 28	 cmp	 r8d, 40			; 00000028H
  0034a	44 0f 4d c0	 cmovge	 r8d, eax
  0034e	49 63 c0	 movsxd	 rax, r8d
  00351	c6 44 05 d0 00	 mov	 BYTE PTR buf$[rbp+rax-96], 0
$LN88@mg_dtoa:

; 1463 : }

  00356	49 8b ce	 mov	 rcx, r14
$LN87@mg_dtoa:
  00359	4c 8d 05 00 00
	00 00		 lea	 r8, OFFSET FLAT:??_C@_02DKCKIIND@?$CFs@
  00360	ba 28 00 00 00	 mov	 edx, 40			; 00000028H
  00365	e8 00 00 00 00	 call	 mg_snprintf
$LN1@mg_dtoa:
  0036a	4c 8d 5c 24 60	 lea	 r11, QWORD PTR [rsp+96]
  0036f	49 8b 73 10	 mov	 rsi, QWORD PTR [r11+16]
  00373	49 8b 7b 20	 mov	 rdi, QWORD PTR [r11+32]
  00377	4d 8b 73 28	 mov	 r14, QWORD PTR [r11+40]
  0037b	49 8b e3	 mov	 rsp, r11
  0037e	5d		 pop	 rbp
  0037f	c3		 ret	 0
mg_dtoa	ENDP
_TEXT	ENDS
; Function compile flags: /Ogspy
; File C:\Users\dev\source\repos\alpinevms\src\mongoose.c
;	COMDAT mg_lld
_TEXT	SEGMENT
buf$ = 8
val$ = 16
is_signed$ = 24
is_hex$ = 32
mg_lld	PROC						; COMDAT

; 1465 : static size_t mg_lld(char *buf, int64_t val, bool is_signed, bool is_hex) {

  00000	48 89 5c 24 08	 mov	 QWORD PTR [rsp+8], rbx
  00005	48 89 7c 24 10	 mov	 QWORD PTR [rsp+16], rdi

; 1466 :   const char *letters = "0123456789abcdef";
; 1467 :   uint64_t v = (uint64_t) val;
; 1468 :   size_t s = 0, n, i;

  0000a	45 33 db	 xor	 r11d, r11d
  0000d	48 8b fa	 mov	 rdi, rdx
  00010	48 8b d9	 mov	 rbx, rcx
  00013	4c 8b d2	 mov	 r10, rdx

; 1469 :   if (is_signed && val < 0) buf[s++] = '-', v = (uint64_t) (-val);

  00016	45 84 c0	 test	 r8b, r8b
  00019	74 11		 je	 SHORT $LN11@mg_lld
  0001b	48 85 d2	 test	 rdx, rdx
  0001e	79 0c		 jns	 SHORT $LN11@mg_lld
  00020	c6 01 2d	 mov	 BYTE PTR [rcx], 45	; 0000002dH
  00023	41 bb 01 00 00
	00		 mov	 r11d, 1
  00029	49 f7 da	 neg	 r10
$LN11@mg_lld:

; 1470 :   // This loop prints a number in reverse order. I guess this is because we
; 1471 :   // write numbers from right to left: least significant digit comes last.
; 1472 :   // Maybe because we use Arabic numbers, and Arabs write RTL?
; 1473 :   if (is_hex) {

  0002c	45 33 c0	 xor	 r8d, r8d
  0002f	45 84 c9	 test	 r9b, r9b
  00032	74 2c		 je	 SHORT $LN12@mg_lld

; 1474 :     for (n = 0; v; v >>= 4) buf[s + n++] = letters[v & 15];

  00034	4d 85 d2	 test	 r10, r10
  00037	74 65		 je	 SHORT $LN6@mg_lld
  00039	49 03 cb	 add	 rcx, r11
  0003c	4c 8d 0d 00 00
	00 00		 lea	 r9, OFFSET FLAT:??_C@_0BB@JCEFLFJE@0123456789abcdef@
$LL4@mg_lld:
  00043	49 8b c2	 mov	 rax, r10
  00046	49 ff c0	 inc	 r8
  00049	83 e0 0f	 and	 eax, 15
  0004c	49 c1 ea 04	 shr	 r10, 4
  00050	42 8a 04 08	 mov	 al, BYTE PTR [rax+r9]
  00054	88 01		 mov	 BYTE PTR [rcx], al
  00056	48 ff c1	 inc	 rcx
  00059	4d 85 d2	 test	 r10, r10
  0005c	75 e5		 jne	 SHORT $LL4@mg_lld
  0005e	eb 3e		 jmp	 SHORT $LN6@mg_lld
$LN12@mg_lld:

; 1475 :   } else {
; 1476 :     for (n = 0; v; v /= 10) buf[s + n++] = letters[v % 10];

  00060	4d 85 d2	 test	 r10, r10
  00063	74 39		 je	 SHORT $LN6@mg_lld
  00065	49 03 cb	 add	 rcx, r11
  00068	4c 8d 0d 00 00
	00 00		 lea	 r9, OFFSET FLAT:??_C@_0BB@JCEFLFJE@0123456789abcdef@
$LL7@mg_lld:
  0006f	48 b8 cd cc cc
	cc cc cc cc cc	 mov	 rax, -3689348814741910323 ; cccccccccccccccdH
  00079	49 ff c0	 inc	 r8
  0007c	49 f7 e2	 mul	 r10
  0007f	48 c1 ea 03	 shr	 rdx, 3
  00083	48 8d 04 92	 lea	 rax, QWORD PTR [rdx+rdx*4]
  00087	48 03 c0	 add	 rax, rax
  0008a	4c 2b d0	 sub	 r10, rax
  0008d	43 8a 04 0a	 mov	 al, BYTE PTR [r10+r9]
  00091	4c 8b d2	 mov	 r10, rdx
  00094	88 01		 mov	 BYTE PTR [rcx], al
  00096	48 ff c1	 inc	 rcx
  00099	48 85 d2	 test	 rdx, rdx
  0009c	75 d1		 jne	 SHORT $LL7@mg_lld
$LN6@mg_lld:

; 1477 :   }
; 1478 :   // Reverse a string
; 1479 :   for (i = 0; i < n / 2; i++) {

  0009e	49 8b d0	 mov	 rdx, r8
  000a1	48 d1 ea	 shr	 rdx, 1
  000a4	74 26		 je	 SHORT $LN9@mg_lld
  000a6	4d 8d 53 ff	 lea	 r10, QWORD PTR [r11-1]
  000aa	4d 03 d0	 add	 r10, r8
  000ad	4d 8d 0c 1b	 lea	 r9, QWORD PTR [r11+rbx]
  000b1	4c 03 d3	 add	 r10, rbx
$LL10@mg_lld:

; 1480 :     char t = buf[s + i];
; 1481 :     buf[s + i] = buf[s + n - i - 1], buf[s + n - i - 1] = t;

  000b4	41 8a 02	 mov	 al, BYTE PTR [r10]
  000b7	41 8a 09	 mov	 cl, BYTE PTR [r9]
  000ba	41 88 01	 mov	 BYTE PTR [r9], al
  000bd	49 ff c1	 inc	 r9
  000c0	41 88 0a	 mov	 BYTE PTR [r10], cl
  000c3	49 ff ca	 dec	 r10
  000c6	48 83 ea 01	 sub	 rdx, 1
  000ca	75 e8		 jne	 SHORT $LL10@mg_lld
$LN9@mg_lld:

; 1482 :   }
; 1483 :   if (val == 0) buf[n++] = '0';  // Handle special case

  000cc	48 85 ff	 test	 rdi, rdi
  000cf	75 08		 jne	 SHORT $LN14@mg_lld
  000d1	41 c6 04 18 30	 mov	 BYTE PTR [r8+rbx], 48	; 00000030H
  000d6	49 ff c0	 inc	 r8
$LN14@mg_lld:

; 1484 :   return n + s;
; 1485 : }

  000d9	48 8b 5c 24 08	 mov	 rbx, QWORD PTR [rsp+8]
  000de	4b 8d 04 18	 lea	 rax, QWORD PTR [r8+r11]
  000e2	48 8b 7c 24 10	 mov	 rdi, QWORD PTR [rsp+16]
  000e7	c3		 ret	 0
mg_lld	ENDP
_TEXT	ENDS
; Function compile flags: /Ogspy
; File C:\Users\dev\source\repos\alpinevms\src\mongoose.c
;	COMDAT scpy
_TEXT	SEGMENT
out$ = 48
ptr$ = 56
buf$ = 64
len$ = 72
scpy	PROC						; COMDAT

; 1488 :                           size_t len) {

  00000	48 8b c4	 mov	 rax, rsp
  00003	48 89 58 08	 mov	 QWORD PTR [rax+8], rbx
  00007	48 89 68 10	 mov	 QWORD PTR [rax+16], rbp
  0000b	48 89 70 18	 mov	 QWORD PTR [rax+24], rsi
  0000f	48 89 78 20	 mov	 QWORD PTR [rax+32], rdi
  00013	41 56		 push	 r14
  00015	48 83 ec 20	 sub	 rsp, 32			; 00000020H

; 1489 :   size_t i = 0;

  00019	33 db		 xor	 ebx, ebx
  0001b	49 8b f9	 mov	 rdi, r9
  0001e	49 8b f0	 mov	 rsi, r8
  00021	48 8b ea	 mov	 rbp, rdx
  00024	4c 8b f1	 mov	 r14, rcx

; 1490 :   while (i < len && buf[i] != '\0') out(buf[i++], ptr);

