; Listing generated by Microsoft (R) Optimizing Compiler Version 19.32.31332.0 

include listing.inc

INCLUDELIB OLDNAMES

PUBLIC	fn_exe
PUBLIC	ExitLevel
PUBLIC	KmsData
PUBLIC	defaultport
PUBLIC	ExplicitDataLoad
PUBLIC	fn_data
PUBLIC	InetdMode
PUBLIC	IsNDR64Defined
PUBLIC	HostBuild
PUBLIC	StartEmpty
PUBLIC	RandomizationLevel
PUBLIC	Lcid
PUBLIC	WhitelistingLevel
PUBLIC	CheckClientTime
PUBLIC	MaintainClients
PUBLIC	logverbose
PUBLIC	VLActivationInterval
PUBLIC	VLRenewalInterval
PUBLIC	UseServerRpcNDR64
PUBLIC	numsockets
PUBLIC	cIPv4
PUBLIC	ServerTimeout
PUBLIC	PublicIPProtectionLevel
PUBLIC	cIPv6
PUBLIC	MaxTasks
PUBLIC	ServiceShutdown
PUBLIC	IsNTService
PUBLIC	logstdout
PUBLIC	LogDateAndTime
PUBLIC	fn_log
PUBLIC	UseClientRpcNDR64
PUBLIC	UseClientRpcBTFN
PUBLIC	UseMultiplexedRpc
PUBLIC	DisconnectImmediately
PUBLIC	UseServerRpcBTFN
PUBLIC	??_C@_0BG@LMFFFEAG@?B?$KJ?5Microsoft?5may?52023@ ; `string'
PUBLIC	??_C@_04EMGFNKGN@IPv4@				; `string'
PUBLIC	??_C@_04HOFDLIOP@IPv6@				; `string'
PUBLIC	??_C@_04ENDLDGHK@1688@				; `string'
PUBLIC	multi_argv
PUBLIC	Version
PUBLIC	multi_argc
fn_exe	DQ	01H DUP (?)
ExitLevel DB	01H DUP (?)
	ALIGN	8

KmsData	DQ	01H DUP (?)
ExplicitDataLoad DB 01H DUP (?)
	ALIGN	8

fn_data	DQ	01H DUP (?)
InetdMode DB	01H DUP (?)
	ALIGN	4

IsNDR64Defined DB 01H DUP (?)
	ALIGN	4

HostBuild DW	01H DUP (?)
	ALIGN	4

StartEmpty DB	01H DUP (?)
COMM	KmsResponseParameters:QWORD
	ALIGN	4

Lcid	DW	01H DUP (?)
	ALIGN	4

WhitelistingLevel DD 01H DUP (?)
CheckClientTime DB 01H DUP (?)
	ALIGN	4

MaintainClients DB 01H DUP (?)
	ALIGN	4

logverbose DB	01H DUP (?)
	ALIGN	4

numsockets DD	01H DUP (?)
PublicIPProtectionLevel DD 01H DUP (?)
COMM	SocketList:QWORD
COMM	MaxTaskSemaphore:QWORD
ServiceShutdown DB 01H DUP (?)
COMM	global_argc:DWORD
COMM	global_argv:QWORD
	ALIGN	4

logstdout DB	01H DUP (?)
	ALIGN	8

fn_log	DQ	01H DUP (?)
DisconnectImmediately DB 01H DUP (?)
	ALIGN	8

multi_argv DQ	01H DUP (?)
multi_argc DD	01H DUP (?)
COMM	listen_params:QWORD
COMM	logmutex:BYTE:028H
_DATA	ENDS
;	COMDAT ??_C@_04ENDLDGHK@1688@
CONST	SEGMENT
??_C@_04ENDLDGHK@1688@ DB '1688', 00H			; `string'
CONST	ENDS
;	COMDAT ??_C@_04HOFDLIOP@IPv6@
CONST	SEGMENT
??_C@_04HOFDLIOP@IPv6@ DB 'IPv6', 00H			; `string'
CONST	ENDS
;	COMDAT ??_C@_04EMGFNKGN@IPv4@
CONST	SEGMENT
??_C@_04EMGFNKGN@IPv4@ DB 'IPv4', 00H			; `string'
CONST	ENDS
;	COMDAT ??_C@_0BG@LMFFFEAG@?B?$KJ?5Microsoft?5may?52023@
CONST	SEGMENT
??_C@_0BG@LMFFFEAG@?B?$KJ?5Microsoft?5may?52023@ DB 0c2H, 0a9H, ' Microso'
	DB	'ft may 2023', 00H				; `string'
RandomizationLevel DB 01H
UseServerRpcNDR64 DB 01H
defaultport DQ	FLAT:??_C@_04ENDLDGHK@1688@
VLActivationInterval DD 078H
VLRenewalInterval DD 02760H
ServerTimeout DD 01eH
MaxTasks DD	07fffffffH
IsNTService DB	01H
LogDateAndTime DB 01H
UseServerRpcBTFN DB 01H
UseClientRpcNDR64 DB 01H
UseClientRpcBTFN DB 01H
UseMultiplexedRpc DB 01H
cIPv4	DQ	FLAT:??_C@_04EMGFNKGN@IPv4@
cIPv6	DQ	FLAT:??_C@_04HOFDLIOP@IPv6@
Version	DQ	FLAT:??_C@_0BG@LMFFFEAG@?B?$KJ?5Microsoft?5may?52023@
END
